// SPDX-License-Identifier: GPL-2.0
/*
 * Copyright (c) 2020 Rockchip Electronics Co. Ltd.
 *
 * Author: Zorro Liu <zorro.liu@rock-chips.com>
 */

	.text
	.file	"pvi_waveform.c"
	.file	1 "/home/lyx/rk-android14/kernel-6.1" "./include/uapi/asm-generic/int-ll64.h"
	.file	2 "/home/lyx/rk-android14/kernel-6.1" "./include/asm-generic/int-ll64.h"
	.file	3 "/home/lyx/rk-android14/kernel-6.1" "drivers/gpu/drm/rockchip/ebc-dev/epdlut/pvi_waveform.c"
	.file	4 "/home/lyx/rk-android14/kernel-6.1" "drivers/gpu/drm/rockchip/ebc-dev/epdlut/epd_lut.h"
	.file	5 "/home/lyx/rk-android14/kernel-6.1" "./include/linux/stddef.h"
	.globl	pvi_wf_get_lut
	.p2align	2
	.type	pvi_wf_get_lut,@function
pvi_wf_get_lut:
.Lfunc_begin0:
	.loc	3 243 0
	.cfi_sections .debug_frame
	.cfi_startproc
	str	x30, [x18], #8
	.cfi_escape 0x16, 0x12, 0x02, 0x82, 0x78
	stp	x29, x30, [sp, #-80]!
	stp	x26, x25, [sp, #16]
	mov	x29, sp
	stp	x24, x23, [sp, #32]
	stp	x22, x21, [sp, #48]
	stp	x20, x19, [sp, #64]
	.cfi_def_cfa w29, 80
	.cfi_offset w19, -8
	.cfi_offset w20, -16
	.cfi_offset w21, -24
	.cfi_offset w22, -32
	.cfi_offset w23, -40
	.cfi_offset w24, -48
	.cfi_offset w25, -56
	.cfi_offset w26, -64
	.cfi_offset w30, -72
	.cfi_offset w29, -80
.Ltmp0:
	.loc	3 251 7 prologue_end
	adrp	x24, global_waveform
	ldr	x8, [x24, :lo12:global_waveform]
.Ltmp1:
	.loc	3 251 6 is_stmt 0
	cbz	x8, .LBB0_10
.Ltmp2:
	.loc	3 0 6
	mov	w19, w2
.Ltmp3:
	mov	w21, w1
.Ltmp4:
	mov	x20, x0
.Ltmp5:
	.loc	3 254 14 is_stmt 1
	cbnz	x0, .LBB0_3
.Ltmp6:
	.loc	3 0 14 is_stmt 0
	mov	w9, #16
	.loc	3 254 18
	ldr	x9, [x9]
.Ltmp7:
	.loc	3 254 6
	cbz	x9, .LBB0_11
.Ltmp8:
.LBB0_3:
	.loc	3 259 28 is_stmt 1
	adrp	x23, pvi_wf_get_lut.sftemp
	.loc	3 259 19 is_stmt 0
	mov	w9, #21846
	movk	w9, #21845, lsl #16
	adrp	x26, pvi_wf_get_lut.stype
	.loc	3 259 28
	ldrsw	x10, [x23, :lo12:pvi_wf_get_lut.sftemp]
	.loc	3 259 19
	smull	x11, w19, w9
	ldr	w13, [x26, :lo12:pvi_wf_get_lut.stype]
	.loc	3 259 35
	mul	x9, x10, x9
	.loc	3 259 19
	lsr	x10, x11, #63
	lsr	x11, x11, #32
	.loc	3 259 35
	lsr	x12, x9, #63
	lsr	x9, x9, #32
	.loc	3 259 19
	add	w25, w11, w10
	.loc	3 259 35
	add	w9, w9, w12
	.loc	3 259 41
	cmp	w25, w9
	ccmp	w13, w21, #0, eq
	b.eq	.LBB0_17
.Ltmp9:
	.loc	3 262 11 is_stmt 1
	adrp	x10, need_pic
	.loc	3 264 6
	cmp	w21, #10
	.loc	3 262 11
	str	w3, [x10, :lo12:need_pic]
	.loc	3 264 6
	b.eq	.LBB0_16
.Ltmp10:
	.loc	3 266 18
	ldr	x10, [x20, #16]
	.loc	3 266 16 is_stmt 0
	adrp	x11, waveformdata
.Ltmp11:
	.loc	3 201 34 is_stmt 1
	ldrb	w9, [x8, #38]
.Ltmp12:
	.loc	3 266 16
	str	x10, [x11, :lo12:waveformdata]
.Ltmp13:
	.loc	3 205 2
	cbz	w9, .LBB0_12
.Ltmp14:
	.loc	3 0 2 is_stmt 0
	mov	x10, xzr
	.loc	3 205 2
	add	x8, x8, #48
.Ltmp15:
.LBB0_7:
	.loc	3 206 21 is_stmt 1
	ldrb	w11, [x8, x10]
.Ltmp16:
	.loc	3 206 7 is_stmt 0
	cmp	w11, w19
	b.ge	.LBB0_13
.Ltmp17:
	.loc	3 205 29 is_stmt 1
	add	x10, x10, #1
.Ltmp18:
	.loc	3 205 2 is_stmt 0
	cmp	x9, x10
	b.ne	.LBB0_7
.Ltmp19:
	.loc	3 0 2
	mov	w8, #-1
	mov	w10, w9
	b	.LBB0_14
.Ltmp20:
.LBB0_10:
	mov	w0, #-19
.Ltmp21:
	b	.LBB0_27
.Ltmp22:
.LBB0_11:
	mov	w0, #-22
	b	.LBB0_27
.Ltmp23:
.LBB0_12:
	mov	w10, wzr
	mov	w8, #-1
	b	.LBB0_14
.Ltmp24:
.LBB0_13:
	mov	w8, w10
.Ltmp25:
.LBB0_14:
	.loc	3 268 16 is_stmt 1
	mov	w0, w21
	sub	w11, w10, #1
.Ltmp26:
	.loc	3 212 6
	cmp	w10, w9
	csel	w22, w11, w8, eq
.Ltmp27:
	.loc	3 268 16
	bl	get_wf_mode_index
.Ltmp28:
	and	w0, w0, #0xff
.Ltmp29:
	.loc	3 269 15
	mov	w1, w22
	bl	get_wf_frm_num
.Ltmp30:
	.loc	3 270 7
	tbnz	w0, #31, .LBB0_28
.Ltmp31:
	.loc	3 274 21
	ldrb	w8, [x20, #1]
	mov	w9, #21846
	movk	w9, #21845, lsl #16
	.loc	3 275 21
	orr	w8, w0, w8, lsl #8
	str	w8, [x20]
.Ltmp32:
	.loc	3 279 27
	ldrsw	x8, [x23, :lo12:pvi_wf_get_lut.sftemp]
.Ltmp33:
	.loc	3 276 9
	str	w21, [x26, :lo12:pvi_wf_get_lut.stype]
.Ltmp34:
	.loc	3 279 34
	mul	x8, x8, x9
	lsr	x9, x8, #63
	lsr	x8, x8, #32
	add	w9, w8, w9
.Ltmp35:
.LBB0_16:
	.loc	3 279 6 is_stmt 0
	cmp	w25, w9
	b.ne	.LBB0_18
.Ltmp36:
.LBB0_17:
	.loc	3 0 6
	mov	w0, wzr
	b	.LBB0_27
.Ltmp37:
.LBB0_18:
	.loc	3 281 18 is_stmt 1
	ldr	x8, [x20, #24]
	.loc	3 281 16 is_stmt 0
	adrp	x9, waveformdata
	str	x8, [x9, :lo12:waveformdata]
	.loc	3 282 17 is_stmt 1
	bl	epd_overlay_lut
.Ltmp38:
	.loc	3 201 17
	ldr	x10, [x24, :lo12:global_waveform]
	.loc	3 201 34 is_stmt 0
	ldrb	w8, [x10, #38]
.Ltmp39:
	.loc	3 205 2 is_stmt 1
	cbz	w8, .LBB0_23
.Ltmp40:
	.loc	3 0 2 is_stmt 0
	mov	x9, xzr
	.loc	3 205 2
	add	x10, x10, #48
.Ltmp41:
.LBB0_20:
	.loc	3 206 21 is_stmt 1
	ldrb	w11, [x10, x9]
.Ltmp42:
	.loc	3 206 7 is_stmt 0
	cmp	w11, w19
	b.ge	.LBB0_24
.Ltmp43:
	.loc	3 205 29 is_stmt 1
	add	x9, x9, #1
.Ltmp44:
	.loc	3 205 2 is_stmt 0
	cmp	x8, x9
	b.ne	.LBB0_20
.Ltmp45:
	.loc	3 0 2
	mov	w10, #-1
	mov	w9, w8
.Ltmp46:
	b	.LBB0_25
.Ltmp47:
.LBB0_23:
	mov	w9, wzr
	mov	w10, #-1
	b	.LBB0_25
.Ltmp48:
.LBB0_24:
	mov	w10, w9
.Ltmp49:
.LBB0_25:
	sub	w11, w9, #1
	.loc	3 212 6 is_stmt 1
	cmp	w9, w8
	csel	w21, w11, w10, eq
.Ltmp50:
	.loc	3 284 16
	bl	get_wf_mode_index
.Ltmp51:
	and	w0, w0, #0xff
.Ltmp52:
	.loc	3 285 15
	mov	w1, w21
	bl	get_wf_frm_num
.Ltmp53:
	.loc	3 286 7
	tbnz	w0, #31, .LBB0_28
.Ltmp54:
	.loc	3 290 21
	ldrb	w8, [x20]
	.loc	3 291 21
	bfi	w8, w0, #8, #24
	mov	w0, wzr
.Ltmp55:
	str	w8, [x20]
	.loc	3 292 10
	str	w19, [x23, :lo12:pvi_wf_get_lut.sftemp]
.Ltmp56:
.LBB0_27:
	.loc	3 296 1
	ldp	x20, x19, [sp, #64]
	ldp	x22, x21, [sp, #48]
	ldp	x24, x23, [sp, #32]
	ldp	x26, x25, [sp, #16]
	ldp	x29, x30, [sp], #80
	ldr	x30, [x18, #-8]!
	ret
.LBB0_28:
.Ltmp57:
	.loc	3 0 0 is_stmt 0
	adrp	x0, .L.str
.Ltmp58:
	add	x0, x0, :lo12:.L.str
	bl	_printk
.Ltmp59:
	mov	w0, #-5
	b	.LBB0_27
.Ltmp60:
.Lfunc_end0:
	.size	pvi_wf_get_lut, .Lfunc_end0-pvi_wf_get_lut
	.cfi_endproc

	.p2align	2
	.type	get_wf_mode_index,@function
get_wf_mode_index:
.Lfunc_begin1:
	.loc	3 182 0 is_stmt 1
	.cfi_startproc
	str	x30, [x18], #8
	.cfi_escape 0x16, 0x12, 0x02, 0x82, 0x78
	stp	x29, x30, [sp, #-16]!
	mov	x29, sp
	.cfi_def_cfa w29, 16
	.cfi_offset w30, -8
	.cfi_offset w29, -16
.Ltmp61:
	.loc	3 186 6 prologue_end
	cmp	w0, #11
	b.hs	.LBB1_12
.Ltmp62:
	.loc	3 194 33
	adrp	x8, global_waveform
.Ltmp63:
	.loc	3 189 13
	cmp	w0, #10
.Ltmp64:
	.loc	3 194 33
	ldr	x8, [x8, :lo12:global_waveform]
.Ltmp65:
	.loc	3 167 20
	ldrb	w9, [x8, #16]
	mov	w8, #3
.Ltmp66:
	.loc	3 189 13
	csel	w8, w8, w0, eq
.Ltmp67:
	.loc	3 167 2
	sub	w9, w9, #9
	cmp	w9, #75
	b.hi	.LBB1_4
.Ltmp68:
	.loc	3 0 2 is_stmt 0
	adrp	x10, .LJTI1_0
	add	x10, x10, :lo12:.LJTI1_0
	adr	x11, .LBB1_3
	ldrb	w12, [x10, x9]
	add	x11, x11, x12, lsl #2
	adrp	x9, pvi_mode_table
	add	x9, x9, :lo12:pvi_mode_table
	br	x11
.Ltmp69:
.LBB1_3:
	adrp	x9, pvi_mode_table+30
	add	x9, x9, :lo12:pvi_mode_table+30
	b	.LBB1_10
.Ltmp70:
.LBB1_4:
	adrp	x9, pvi_mode_table+70
	add	x9, x9, :lo12:pvi_mode_table+70
	b	.LBB1_10
.Ltmp71:
.LBB1_5:
	adrp	x9, pvi_mode_table+10
	add	x9, x9, :lo12:pvi_mode_table+10
	b	.LBB1_10
.Ltmp72:
.LBB1_6:
	adrp	x9, pvi_mode_table+20
	add	x9, x9, :lo12:pvi_mode_table+20
	b	.LBB1_10
.Ltmp73:
.LBB1_7:
	adrp	x9, pvi_mode_table+40
	add	x9, x9, :lo12:pvi_mode_table+40
	b	.LBB1_10
.Ltmp74:
.LBB1_8:
	adrp	x9, pvi_mode_table+50
	add	x9, x9, :lo12:pvi_mode_table+50
	b	.LBB1_10
.Ltmp75:
.LBB1_9:
	adrp	x9, pvi_mode_table+60
	add	x9, x9, :lo12:pvi_mode_table+60
.Ltmp76:
.LBB1_10:
	.loc	3 196 9 is_stmt 1
	ldrb	w0, [x9, x8]
.Ltmp77:
.LBB1_11:
	.loc	3 197 1
	ldp	x29, x30, [sp], #16
	ldr	x30, [x18, #-8]!
	ret
.Ltmp78:
.LBB1_12:
	.loc	3 187 3
	adrp	x0, .L.str.3
.Ltmp79:
	add	x0, x0, :lo12:.L.str.3
	bl	_printk
.Ltmp80:
	.loc	3 0 3 is_stmt 0
	mov	w0, #255
	b	.LBB1_11
.Ltmp81:
.Lfunc_end1:
	.size	get_wf_mode_index, .Lfunc_end1-get_wf_mode_index
	.cfi_endproc
	.section	.rodata,"a",@progbits
.LJTI1_0:
	.byte	(.LBB1_10-.LBB1_3)>>2
	.byte	(.LBB1_4-.LBB1_3)>>2
	.byte	(.LBB1_4-.LBB1_3)>>2
	.byte	(.LBB1_4-.LBB1_3)>>2
	.byte	(.LBB1_4-.LBB1_3)>>2
	.byte	(.LBB1_4-.LBB1_3)>>2
	.byte	(.LBB1_4-.LBB1_3)>>2
	.byte	(.LBB1_4-.LBB1_3)>>2
	.byte	(.LBB1_4-.LBB1_3)>>2
	.byte	(.LBB1_5-.LBB1_3)>>2
	.byte	(.LBB1_4-.LBB1_3)>>2
	.byte	(.LBB1_4-.LBB1_3)>>2
	.byte	(.LBB1_4-.LBB1_3)>>2
	.byte	(.LBB1_6-.LBB1_3)>>2
	.byte	(.LBB1_4-.LBB1_3)>>2
	.byte	(.LBB1_4-.LBB1_3)>>2
	.byte	(.LBB1_3-.LBB1_3)>>2
	.byte	(.LBB1_4-.LBB1_3)>>2
	.byte	(.LBB1_4-.LBB1_3)>>2
	.byte	(.LBB1_4-.LBB1_3)>>2
	.byte	(.LBB1_4-.LBB1_3)>>2
	.byte	(.LBB1_4-.LBB1_3)>>2
	.byte	(.LBB1_4-.LBB1_3)>>2
	.byte	(.LBB1_4-.LBB1_3)>>2
	.byte	(.LBB1_4-.LBB1_3)>>2
	.byte	(.LBB1_4-.LBB1_3)>>2
	.byte	(.LBB1_7-.LBB1_3)>>2
	.byte	(.LBB1_4-.LBB1_3)>>2
	.byte	(.LBB1_4-.LBB1_3)>>2
	.byte	(.LBB1_4-.LBB1_3)>>2
	.byte	(.LBB1_4-.LBB1_3)>>2
	.byte	(.LBB1_4-.LBB1_3)>>2
	.byte	(.LBB1_4-.LBB1_3)>>2
	.byte	(.LBB1_4-.LBB1_3)>>2
	.byte	(.LBB1_4-.LBB1_3)>>2
	.byte	(.LBB1_4-.LBB1_3)>>2
	.byte	(.LBB1_4-.LBB1_3)>>2
	.byte	(.LBB1_4-.LBB1_3)>>2
	.byte	(.LBB1_4-.LBB1_3)>>2
	.byte	(.LBB1_4-.LBB1_3)>>2
	.byte	(.LBB1_4-.LBB1_3)>>2
	.byte	(.LBB1_4-.LBB1_3)>>2
	.byte	(.LBB1_4-.LBB1_3)>>2
	.byte	(.LBB1_4-.LBB1_3)>>2
	.byte	(.LBB1_4-.LBB1_3)>>2
	.byte	(.LBB1_4-.LBB1_3)>>2
	.byte	(.LBB1_4-.LBB1_3)>>2
	.byte	(.LBB1_4-.LBB1_3)>>2
	.byte	(.LBB1_4-.LBB1_3)>>2
	.byte	(.LBB1_4-.LBB1_3)>>2
	.byte	(.LBB1_4-.LBB1_3)>>2
	.byte	(.LBB1_4-.LBB1_3)>>2
	.byte	(.LBB1_4-.LBB1_3)>>2
	.byte	(.LBB1_4-.LBB1_3)>>2
	.byte	(.LBB1_4-.LBB1_3)>>2
	.byte	(.LBB1_4-.LBB1_3)>>2
	.byte	(.LBB1_4-.LBB1_3)>>2
	.byte	(.LBB1_4-.LBB1_3)>>2
	.byte	(.LBB1_3-.LBB1_3)>>2
	.byte	(.LBB1_4-.LBB1_3)>>2
	.byte	(.LBB1_4-.LBB1_3)>>2
	.byte	(.LBB1_4-.LBB1_3)>>2
	.byte	(.LBB1_4-.LBB1_3)>>2
	.byte	(.LBB1_8-.LBB1_3)>>2
	.byte	(.LBB1_4-.LBB1_3)>>2
	.byte	(.LBB1_4-.LBB1_3)>>2
	.byte	(.LBB1_4-.LBB1_3)>>2
	.byte	(.LBB1_4-.LBB1_3)>>2
	.byte	(.LBB1_4-.LBB1_3)>>2
	.byte	(.LBB1_4-.LBB1_3)>>2
	.byte	(.LBB1_4-.LBB1_3)>>2
	.byte	(.LBB1_4-.LBB1_3)>>2
	.byte	(.LBB1_4-.LBB1_3)>>2
	.byte	(.LBB1_4-.LBB1_3)>>2
	.byte	(.LBB1_4-.LBB1_3)>>2
	.byte	(.LBB1_9-.LBB1_3)>>2

	.text
	.p2align	2
	.type	get_wf_frm_num,@function
get_wf_frm_num:
.Lfunc_begin2:
	.loc	3 219 0 is_stmt 1
	.cfi_startproc
	str	x30, [x18], #8
	.cfi_escape 0x16, 0x12, 0x02, 0x82, 0x78
	stp	x29, x30, [sp, #-64]!
	stp	x24, x23, [sp, #16]
	mov	x29, sp
	stp	x22, x21, [sp, #32]
	stp	x20, x19, [sp, #48]
	.cfi_def_cfa w29, 64
	.cfi_offset w19, -8
	.cfi_offset w20, -16
	.cfi_offset w21, -24
	.cfi_offset w22, -32
	.cfi_offset w23, -40
	.cfi_offset w24, -48
	.cfi_offset w30, -56
	.cfi_offset w29, -64
.Ltmp82:
	.loc	3 220 45 prologue_end
	adrp	x8, global_waveform
	.loc	3 224 37
	lsl	w9, w0, #2
	.loc	3 220 45
	ldr	x14, [x8, :lo12:global_waveform]
.Ltmp83:
	.loc	3 222 32
	ldrb	w8, [x14, #32]
.Ltmp84:
	.loc	3 224 21
	add	x8, x14, x8
.Ltmp85:
	.loc	3 224 30 is_stmt 0
	add	x8, x8, x9
.Ltmp86:
	.loc	3 225 22 is_stmt 1
	ldrb	w9, [x8]
	.loc	3 225 35 is_stmt 0
	ldrb	w10, [x8, #1]
	.loc	3 225 48
	ldrb	w11, [x8, #2]
	.loc	3 225 6
	ldrb	w12, [x8, #3]
	.loc	3 225 33
	add	w9, w10, w9
	.loc	3 225 46
	add	w9, w9, w11
.Ltmp87:
	.loc	3 225 6
	cmp	w12, w9, uxtb
	b.ne	.LBB2_36
.Ltmp88:
	.loc	3 0 6
	ldr	w8, [x8]
.Ltmp89:
	.loc	3 231 43 is_stmt 1
	lsl	w9, w1, #2
	.loc	3 229 28
	and	x8, x8, #0xffffff
.Ltmp90:
	.loc	3 231 21
	add	x8, x14, x8
.Ltmp91:
	.loc	3 231 30 is_stmt 0
	add	x8, x8, w9, sxtw
.Ltmp92:
	.loc	3 232 22 is_stmt 1
	ldrb	w9, [x8]
	.loc	3 232 35 is_stmt 0
	ldrb	w10, [x8, #1]
	.loc	3 232 48
	ldrb	w11, [x8, #2]
	.loc	3 232 6
	ldrb	w12, [x8, #3]
	.loc	3 232 33
	add	w9, w10, w9
	.loc	3 232 46
	add	w9, w9, w11
.Ltmp93:
	.loc	3 232 6
	cmp	w12, w9, uxtb
	b.ne	.LBB2_37
.Ltmp94:
	.loc	3 55 7 is_stmt 1
	adrp	x20, waveformdata
	ldr	x10, [x20, :lo12:waveformdata]
.Ltmp95:
	.loc	3 55 6 is_stmt 0
	cbz	x10, .LBB2_39
.Ltmp96:
	.loc	3 0 6
	adrp	x21, need_pic
.Ltmp97:
	.loc	3 60 6 is_stmt 1
	adrp	x22, maxpic
	ldr	w15, [x8]
	mov	w16, #5
	mov	w0, #32
.Ltmp98:
	.loc	3 0 6 is_stmt 0
	mov	w13, wzr
	ldr	w9, [x21, :lo12:need_pic]
	mov	w11, wzr
	.loc	3 60 6
	ldrb	w8, [x22, :lo12:maxpic]
.Ltmp99:
	.loc	3 0 0
	and	x15, x15, #0xffffff
.Ltmp100:
	add	x14, x14, x15
.Ltmp101:
	mov	w19, wzr
	cmp	w9, #32
	mov	w12, wzr
	cset	w17, eq
	bics	w15, w17, w8
.Ltmp102:
	mov	w17, #16
	cinc	w16, w16, ne
	cmp	w8, #0
	csel	w17, w0, w17, ne
	mov	w0, #1
.Ltmp103:
	b	.LBB2_6
.Ltmp104:
.LBB2_4:
	mov	w0, #1
.Ltmp105:
.LBB2_5:
	add	w11, w11, #1
.Ltmp106:
	.loc	3 64 7 is_stmt 1
	cmp	w19, #254
	b.hi	.LBB2_18
.Ltmp107:
.LBB2_6:
	.loc	3 69 7
	ldrb	w3, [x14, w11, uxtw]
.Ltmp108:
	.loc	3 69 7 is_stmt 0
	cmp	w3, #252
	b.eq	.LBB2_11
.Ltmp109:
	cmp	w3, #255
	b.eq	.LBB2_19
.Ltmp110:
	.loc	3 79 7 is_stmt 1
	tbnz	w0, #0, .LBB2_12
.Ltmp111:
.LBB2_9:
	.loc	3 114 44
	add	w0, w13, #1
.Ltmp112:
	.loc	3 114 75 is_stmt 0
	lsl	w1, w12, w15
.Ltmp113:
	.loc	3 114 47
	lsl	w2, w13, w16
	.loc	3 114 35
	add	w1, w1, w19, lsl #10
	.loc	3 115 47 is_stmt 1
	lsl	w0, w0, w16
.Ltmp114:
	.loc	3 114 65
	add	w2, w1, w2
	.loc	3 115 65
	add	w0, w1, w0
	.loc	3 114 99
	and	w4, w3, #0x3
	.loc	3 115 106
	ubfx	w5, w3, #2, #2
	.loc	3 114 88
	strb	w4, [x10, w2, uxtw]
	.loc	3 115 44
	add	w2, w13, #2
.Ltmp115:
	.loc	3 115 88 is_stmt 0
	strb	w5, [x10, w0, uxtw]
	.loc	3 116 44 is_stmt 1
	add	w0, w13, #3
.Ltmp116:
	.loc	3 116 47 is_stmt 0
	lsl	w2, w2, w16
	.loc	3 117 47 is_stmt 1
	lsl	w0, w0, w16
.Ltmp117:
	.loc	3 116 65
	add	w2, w1, w2
	.loc	3 117 65
	add	w0, w1, w0
	.loc	3 116 106
	ubfx	w4, w3, #4, #2
	.loc	3 117 100
	lsr	w1, w3, #6
	.loc	3 117 44 is_stmt 0
	add	w13, w13, #4
.Ltmp118:
	.loc	3 116 88 is_stmt 1
	strb	w4, [x10, w2, uxtw]
	.loc	3 120 8
	cmp	w13, w17
	.loc	3 117 88
	strb	w1, [x10, w0, uxtw]
.Ltmp119:
	.loc	3 0 88 is_stmt 0
	mov	w0, wzr
	.loc	3 120 8 is_stmt 1
	b.lo	.LBB2_5
.Ltmp120:
	.loc	3 122 9
	add	w1, w12, #1
.Ltmp121:
	.loc	3 0 9 is_stmt 0
	mov	w13, wzr
	.loc	3 122 18
	cmp	w1, w17
.Ltmp122:
	.loc	3 122 9
	csinc	w12, wzr, w12, hs
	cinc	w19, w19, hs
.Ltmp123:
	.loc	3 0 9
	b	.LBB2_5
.Ltmp124:
.LBB2_11:
	.loc	3 76 10 is_stmt 1
	add	w11, w11, #1
.Ltmp125:
	.loc	3 0 0 is_stmt 0
	ldrb	w3, [x14, w11, uxtw]
.Ltmp126:
	.loc	3 79 7 is_stmt 1
	tbnz	w0, #0, .LBB2_9
.Ltmp127:
.LBB2_12:
	.loc	3 81 44
	add	w0, w13, #1
.Ltmp128:
	.loc	3 81 75 is_stmt 0
	lsl	w1, w12, w15
.Ltmp129:
	.loc	3 81 47
	lsl	w2, w13, w16
	.loc	3 81 35
	add	w4, w1, w19, lsl #10
	.loc	3 82 47 is_stmt 1
	lsl	w1, w0, w16
	.loc	3 81 65
	add	w2, w4, w2
	.loc	3 82 65
	add	w5, w4, w1
	.loc	3 81 99
	and	w0, w3, #0x3
.Ltmp130:
	.loc	3 82 106
	ubfx	w1, w3, #2, #2
	.loc	3 81 88
	strb	w0, [x10, w2, uxtw]
	.loc	3 82 44
	add	w2, w13, #2
.Ltmp131:
	.loc	3 82 88 is_stmt 0
	strb	w1, [x10, w5, uxtw]
	.loc	3 83 44 is_stmt 1
	add	w5, w13, #3
.Ltmp132:
	.loc	3 83 47 is_stmt 0
	lsl	w2, w2, w16
	.loc	3 84 47 is_stmt 1
	lsl	w5, w5, w16
.Ltmp133:
	.loc	3 83 65
	add	w6, w4, w2
	.loc	3 83 106 is_stmt 0
	ubfx	w2, w3, #4, #2
	.loc	3 84 65 is_stmt 1
	add	w4, w4, w5
	.loc	3 84 100 is_stmt 0
	lsr	w3, w3, #6
.Ltmp134:
	.loc	3 84 44
	add	w13, w13, #4
.Ltmp135:
	.loc	3 87 8 is_stmt 1
	cmp	w13, w17
	.loc	3 83 88
	strb	w2, [x10, w6, uxtw]
	.loc	3 84 88
	strb	w3, [x10, w4, uxtw]
.Ltmp136:
	.loc	3 87 8
	b.lo	.LBB2_14
.Ltmp137:
	.loc	3 89 9
	add	w4, w12, #1
.Ltmp138:
	.loc	3 0 9 is_stmt 0
	mov	w13, wzr
	.loc	3 89 18
	cmp	w4, w17
.Ltmp139:
	.loc	3 89 9
	csinc	w12, wzr, w12, hs
	cinc	w19, w19, hs
.Ltmp140:
.LBB2_14:
	.loc	3 0 0
	add	w11, w11, #1
.Ltmp141:
	.loc	3 95 8 is_stmt 1
	ldrb	w4, [x14, w11, uxtw]
.Ltmp142:
	.loc	3 96 4
	cbnz	w4, .LBB2_16
	b	.LBB2_4
.Ltmp143:
.LBB2_15:
	.loc	3 96 19 is_stmt 0
	sub	w4, w4, #1
.Ltmp144:
	tst	w4, #0xff
.Ltmp145:
	.loc	3 96 4
	b.eq	.LBB2_4
.Ltmp146:
.LBB2_16:
	.loc	3 97 45 is_stmt 1
	add	w5, w13, #1
.Ltmp147:
	.loc	3 97 76 is_stmt 0
	lsl	w6, w12, w15
	.loc	3 98 45 is_stmt 1
	add	w23, w13, #2
.Ltmp148:
	.loc	3 99 45
	add	w24, w13, #3
.Ltmp149:
	.loc	3 97 48
	lsl	w7, w13, w16
	.loc	3 97 36 is_stmt 0
	add	w6, w6, w19, lsl #10
	.loc	3 98 48 is_stmt 1
	lsl	w5, w5, w16
	.loc	3 99 48
	lsl	w23, w23, w16
	.loc	3 100 48
	lsl	w24, w24, w16
.Ltmp150:
	.loc	3 97 66
	add	w7, w6, w7
	.loc	3 98 66
	add	w5, w6, w5
	.loc	3 99 66
	add	w23, w6, w23
	.loc	3 100 66
	add	w6, w6, w24
	.loc	3 100 45 is_stmt 0
	add	w13, w13, #4
.Ltmp151:
	.loc	3 101 9 is_stmt 1
	cmp	w13, w17
	.loc	3 97 89
	strb	w0, [x10, w7, uxtw]
	.loc	3 98 89
	strb	w1, [x10, w5, uxtw]
	.loc	3 99 89
	strb	w2, [x10, w23, uxtw]
	.loc	3 100 89
	strb	w3, [x10, w6, uxtw]
	.loc	3 101 9
	b.lo	.LBB2_15
.Ltmp152:
	.loc	3 103 10
	add	w5, w12, #1
.Ltmp153:
	.loc	3 0 10 is_stmt 0
	mov	w13, wzr
	.loc	3 103 19
	cmp	w5, w17
.Ltmp154:
	.loc	3 103 10
	csinc	w12, wzr, w12, hs
	cinc	w19, w19, hs
.Ltmp155:
	.loc	3 0 10
	b	.LBB2_15
.Ltmp156:
.LBB2_18:
	.loc	3 65 4 is_stmt 1
	adrp	x0, .L.str.6
	add	x0, x0, :lo12:.L.str.6
	bl	_printk
.Ltmp157:
	.loc	3 130 6
	ldrb	w8, [x22, :lo12:maxpic]
	ldr	w9, [x21, :lo12:need_pic]
.Ltmp158:
.LBB2_19:
	.loc	3 130 24 is_stmt 0
	cbz	w8, .LBB2_26
.Ltmp159:
	cmp	w9, #16
	b.ne	.LBB2_26
.Ltmp160:
	.loc	3 132 3 is_stmt 1
	cbz	w19, .LBB2_41
.Ltmp161:
	.loc	3 0 3 is_stmt 0
	ldr	x13, [x20, :lo12:waveformdata]
	mov	w10, wzr
	mov	w11, wzr
	.loc	3 132 3
	add	x12, x13, #16
	add	x13, x13, #7
.Ltmp162:
.LBB2_23:
	.loc	3 0 3
	mov	w15, w10
	mov	x16, #-2
.Ltmp163:
	add	x14, x12, x15
	and	x15, x15, #0xffffffe0
	add	x15, x13, x15
.Ltmp164:
.LBB2_24:
	.loc	3 135 17 is_stmt 1
	ldurb	w17, [x14, #-16]
.Ltmp165:
	.loc	3 133 28
	add	x16, x16, #2
.Ltmp166:
	.loc	3 133 4 is_stmt 0
	cmp	x16, #30
.Ltmp167:
	.loc	3 136 61 is_stmt 1
	sturb	w17, [x15, #-7]
.Ltmp168:
	.loc	3 135 17
	ldurb	w17, [x14, #-14]
.Ltmp169:
	.loc	3 136 61
	sturb	w17, [x15, #-6]
.Ltmp170:
	.loc	3 135 17
	ldurb	w17, [x14, #-12]
.Ltmp171:
	.loc	3 136 61
	sturb	w17, [x15, #-5]
.Ltmp172:
	.loc	3 135 17
	ldurb	w17, [x14, #-10]
.Ltmp173:
	.loc	3 136 61
	sturb	w17, [x15, #-4]
.Ltmp174:
	.loc	3 135 17
	ldurb	w17, [x14, #-8]
.Ltmp175:
	.loc	3 136 61
	sturb	w17, [x15, #-3]
.Ltmp176:
	.loc	3 135 17
	ldurb	w17, [x14, #-6]
.Ltmp177:
	.loc	3 136 61
	sturb	w17, [x15, #-2]
.Ltmp178:
	.loc	3 135 17
	ldurb	w17, [x14, #-4]
.Ltmp179:
	.loc	3 136 61
	sturb	w17, [x15, #-1]
.Ltmp180:
	.loc	3 135 17
	ldurb	w17, [x14, #-2]
.Ltmp181:
	.loc	3 136 61
	strb	w17, [x15]
.Ltmp182:
	.loc	3 135 17
	ldrb	w17, [x14]
.Ltmp183:
	.loc	3 136 61
	strb	w17, [x15, #1]
.Ltmp184:
	.loc	3 135 17
	ldrb	w17, [x14, #2]
.Ltmp185:
	.loc	3 136 61
	strb	w17, [x15, #2]
.Ltmp186:
	.loc	3 135 17
	ldrb	w17, [x14, #4]
.Ltmp187:
	.loc	3 136 61
	strb	w17, [x15, #3]
.Ltmp188:
	.loc	3 135 17
	ldrb	w17, [x14, #6]
.Ltmp189:
	.loc	3 136 61
	strb	w17, [x15, #4]
.Ltmp190:
	.loc	3 135 17
	ldrb	w17, [x14, #8]
.Ltmp191:
	.loc	3 136 61
	strb	w17, [x15, #5]
.Ltmp192:
	.loc	3 135 17
	ldrb	w17, [x14, #10]
.Ltmp193:
	.loc	3 136 61
	strb	w17, [x15, #6]
.Ltmp194:
	.loc	3 135 17
	ldrb	w17, [x14, #12]
.Ltmp195:
	.loc	3 136 61
	strb	w17, [x15, #7]
.Ltmp196:
	.loc	3 135 17
	ldrb	w17, [x14, #14]
.Ltmp197:
	.loc	3 133 28
	add	x14, x14, #64
.Ltmp198:
	.loc	3 136 61
	strb	w17, [x15, #8]
.Ltmp199:
	.loc	3 133 28
	add	x15, x15, #32
.Ltmp200:
	.loc	3 133 4 is_stmt 0
	b.lo	.LBB2_24
.Ltmp201:
	.loc	3 132 31 is_stmt 1
	add	w11, w11, #1
.Ltmp202:
	.loc	3 132 3 is_stmt 0
	add	w10, w10, #1024
.Ltmp203:
	cmp	w19, w11, uxtb
	b.hi	.LBB2_23
.Ltmp204:
.LBB2_26:
	.loc	3 0 3
	cmp	w9, #32
	cset	w9, eq
.Ltmp205:
	.loc	3 142 24 is_stmt 1
	and	w8, w8, w9
	cmp	w8, #1
	b.ne	.LBB2_41
.Ltmp206:
	.loc	3 144 3
	cbz	w19, .LBB2_41
.Ltmp207:
	.loc	3 0 3 is_stmt 0
	ldr	x8, [x20, :lo12:waveformdata]
	mov	x9, xzr
	.loc	3 144 3
	subs	w10, w19, #1
	b.eq	.LBB2_34
.Ltmp208:
	neg	w11, w19
	tst	w11, #0xff
	b.eq	.LBB2_34
.Ltmp209:
	.loc	3 0 3
	cmp	w10, #255
	b.hi	.LBB2_34
.Ltmp210:
	add	x10, x10, #1
	mov	x12, x8
	.loc	3 144 3
	and	x9, x10, #0x1fffffffe
	mov	x11, x9
.Ltmp211:
.LBB2_32:
	.loc	3 144 15
	strb	wzr, [x12, #989]
	subs	x11, x11, #2
	strb	wzr, [x12, #2013]
	add	x12, x12, #2048
	b.ne	.LBB2_32
.Ltmp212:
	.loc	3 144 3
	cmp	x10, x9
	b.eq	.LBB2_41
.Ltmp213:
.LBB2_34:
	add	x8, x8, x9, lsl #10
	add	w9, w9, #1
	add	x8, x8, #989
.Ltmp214:
.LBB2_35:
	add	w10, w9, #1
	cmp	w19, w9, uxtb
.Ltmp215:
	.loc	3 145 45 is_stmt 1
	strb	wzr, [x8]
.Ltmp216:
	.loc	3 144 3
	add	x8, x8, #1024
	mov	w9, w10
	b.hi	.LBB2_35
	b	.LBB2_41
.Ltmp217:
.LBB2_36:
	.loc	3 226 3
	adrp	x0, .L.str.4
.Ltmp218:
	adrp	x1, .L__func__.get_wf_frm_num
.Ltmp219:
	add	x0, x0, :lo12:.L.str.4
	add	x1, x1, :lo12:.L__func__.get_wf_frm_num
	mov	w2, #226
	b	.LBB2_38
.Ltmp220:
.LBB2_37:
	.loc	3 233 3
	adrp	x0, .L.str.4
.Ltmp221:
	adrp	x1, .L__func__.get_wf_frm_num
.Ltmp222:
	add	x0, x0, :lo12:.L.str.4
	add	x1, x1, :lo12:.L__func__.get_wf_frm_num
	mov	w2, #233
.Ltmp223:
.LBB2_38:
	.loc	3 0 0 is_stmt 0
	bl	_printk
.Ltmp224:
	b	.LBB2_40
.Ltmp225:
.LBB2_39:
	.loc	3 56 3 is_stmt 1
	adrp	x0, .L.str.5
.Ltmp226:
	add	x0, x0, :lo12:.L.str.5
	bl	_printk
.Ltmp227:
.LBB2_40:
	.loc	3 0 3 is_stmt 0
	mov	w19, #-22
.Ltmp228:
.LBB2_41:
	.loc	3 240 1 is_stmt 1
	mov	w0, w19
	ldp	x20, x19, [sp, #48]
	ldp	x22, x21, [sp, #32]
	ldp	x24, x23, [sp, #16]
	ldp	x29, x30, [sp], #64
	ldr	x30, [x18, #-8]!
	ret
.Ltmp229:
.Lfunc_end2:
	.size	get_wf_frm_num, .Lfunc_end2-get_wf_frm_num
	.cfi_endproc
	.file	6 "/home/lyx/rk-android14/kernel-6.1" "./include/linux/types.h"

	.globl	pvi_wf_input
	.p2align	2
	.type	pvi_wf_input,@function
pvi_wf_input:
.Lfunc_begin3:
	.loc	3 305 0
	.cfi_startproc
	str	x30, [x18], #8
	.cfi_escape 0x16, 0x12, 0x02, 0x82, 0x78
	stp	x29, x30, [sp, #-32]!
	stp	x20, x19, [sp, #16]
	mov	x29, sp
	.cfi_def_cfa w29, 32
	.cfi_offset w19, -8
	.cfi_offset w20, -16
	.cfi_offset w30, -24
	.cfi_offset w29, -32
.Ltmp230:
	.loc	3 308 6 prologue_end
	adrp	x20, global_waveform
	ldr	x8, [x20, :lo12:global_waveform]
.Ltmp231:
	.loc	3 308 6 is_stmt 0
	cbz	x8, .LBB3_3
.Ltmp232:
	.loc	3 0 6
	mov	w0, #-16
.Ltmp233:
.LBB3_2:
	.loc	3 337 1 is_stmt 1
	ldp	x20, x19, [sp, #16]
	ldp	x29, x30, [sp], #32
	ldr	x30, [x18, #-8]!
	ret
.Ltmp234:
.LBB3_3:
	.loc	3 0 1 is_stmt 0
	mov	x19, x0
.Ltmp235:
	.loc	3 311 2 is_stmt 1
	ldrb	w1, [x0, #16]
	adrp	x0, .L.str.1
	add	x0, x0, :lo12:.L.str.1
	bl	_printk
.Ltmp236:
	.loc	3 314 18
	ldrb	w1, [x19, #16]
	.loc	3 314 2 is_stmt 0
	sub	w8, w1, #9
	cmp	w8, #75
	b.hi	.LBB3_7
.Ltmp237:
	.loc	3 0 2
	adrp	x9, .LJTI3_0
	add	x9, x9, :lo12:.LJTI3_0
	adr	x10, .LBB3_5
	ldrb	w11, [x9, x8]
	add	x10, x10, x11, lsl #2
	br	x10
.Ltmp238:
.LBB3_5:
	.loc	3 321 10 is_stmt 1
	adrp	x8, maxpic
	mov	w9, #1
	strb	w9, [x8, :lo12:maxpic]
.Ltmp239:
.LBB3_6:
	.loc	3 0 10 is_stmt 0
	mov	w0, wzr
	.loc	3 334 18 is_stmt 1
	str	x19, [x20, :lo12:global_waveform]
	b	.LBB3_2
.Ltmp240:
.LBB3_7:
	.loc	3 329 3
	adrp	x0, .L.str.2
	ldrb	w2, [x19, #22]
	add	x0, x0, :lo12:.L.str.2
	bl	_printk
.Ltmp241:
	.loc	3 0 3 is_stmt 0
	mov	w0, #-8
	b	.LBB3_2
.Ltmp242:
.Lfunc_end3:
	.size	pvi_wf_input, .Lfunc_end3-pvi_wf_input
	.cfi_endproc
	.section	.rodata,"a",@progbits
.LJTI3_0:
	.byte	(.LBB3_6-.LBB3_5)>>2
	.byte	(.LBB3_7-.LBB3_5)>>2
	.byte	(.LBB3_7-.LBB3_5)>>2
	.byte	(.LBB3_7-.LBB3_5)>>2
	.byte	(.LBB3_7-.LBB3_5)>>2
	.byte	(.LBB3_7-.LBB3_5)>>2
	.byte	(.LBB3_7-.LBB3_5)>>2
	.byte	(.LBB3_7-.LBB3_5)>>2
	.byte	(.LBB3_7-.LBB3_5)>>2
	.byte	(.LBB3_6-.LBB3_5)>>2
	.byte	(.LBB3_7-.LBB3_5)>>2
	.byte	(.LBB3_7-.LBB3_5)>>2
	.byte	(.LBB3_7-.LBB3_5)>>2
	.byte	(.LBB3_5-.LBB3_5)>>2
	.byte	(.LBB3_7-.LBB3_5)>>2
	.byte	(.LBB3_5-.LBB3_5)>>2
	.byte	(.LBB3_5-.LBB3_5)>>2
	.byte	(.LBB3_7-.LBB3_5)>>2
	.byte	(.LBB3_7-.LBB3_5)>>2
	.byte	(.LBB3_7-.LBB3_5)>>2
	.byte	(.LBB3_7-.LBB3_5)>>2
	.byte	(.LBB3_7-.LBB3_5)>>2
	.byte	(.LBB3_7-.LBB3_5)>>2
	.byte	(.LBB3_5-.LBB3_5)>>2
	.byte	(.LBB3_7-.LBB3_5)>>2
	.byte	(.LBB3_7-.LBB3_5)>>2
	.byte	(.LBB3_6-.LBB3_5)>>2
	.byte	(.LBB3_7-.LBB3_5)>>2
	.byte	(.LBB3_7-.LBB3_5)>>2
	.byte	(.LBB3_7-.LBB3_5)>>2
	.byte	(.LBB3_7-.LBB3_5)>>2
	.byte	(.LBB3_7-.LBB3_5)>>2
	.byte	(.LBB3_7-.LBB3_5)>>2
	.byte	(.LBB3_7-.LBB3_5)>>2
	.byte	(.LBB3_7-.LBB3_5)>>2
	.byte	(.LBB3_7-.LBB3_5)>>2
	.byte	(.LBB3_7-.LBB3_5)>>2
	.byte	(.LBB3_7-.LBB3_5)>>2
	.byte	(.LBB3_7-.LBB3_5)>>2
	.byte	(.LBB3_7-.LBB3_5)>>2
	.byte	(.LBB3_7-.LBB3_5)>>2
	.byte	(.LBB3_7-.LBB3_5)>>2
	.byte	(.LBB3_7-.LBB3_5)>>2
	.byte	(.LBB3_7-.LBB3_5)>>2
	.byte	(.LBB3_7-.LBB3_5)>>2
	.byte	(.LBB3_7-.LBB3_5)>>2
	.byte	(.LBB3_7-.LBB3_5)>>2
	.byte	(.LBB3_7-.LBB3_5)>>2
	.byte	(.LBB3_7-.LBB3_5)>>2
	.byte	(.LBB3_7-.LBB3_5)>>2
	.byte	(.LBB3_7-.LBB3_5)>>2
	.byte	(.LBB3_7-.LBB3_5)>>2
	.byte	(.LBB3_7-.LBB3_5)>>2
	.byte	(.LBB3_7-.LBB3_5)>>2
	.byte	(.LBB3_7-.LBB3_5)>>2
	.byte	(.LBB3_7-.LBB3_5)>>2
	.byte	(.LBB3_7-.LBB3_5)>>2
	.byte	(.LBB3_7-.LBB3_5)>>2
	.byte	(.LBB3_5-.LBB3_5)>>2
	.byte	(.LBB3_7-.LBB3_5)>>2
	.byte	(.LBB3_7-.LBB3_5)>>2
	.byte	(.LBB3_7-.LBB3_5)>>2
	.byte	(.LBB3_7-.LBB3_5)>>2
	.byte	(.LBB3_5-.LBB3_5)>>2
	.byte	(.LBB3_7-.LBB3_5)>>2
	.byte	(.LBB3_7-.LBB3_5)>>2
	.byte	(.LBB3_7-.LBB3_5)>>2
	.byte	(.LBB3_7-.LBB3_5)>>2
	.byte	(.LBB3_7-.LBB3_5)>>2
	.byte	(.LBB3_7-.LBB3_5)>>2
	.byte	(.LBB3_7-.LBB3_5)>>2
	.byte	(.LBB3_7-.LBB3_5)>>2
	.byte	(.LBB3_7-.LBB3_5)>>2
	.byte	(.LBB3_7-.LBB3_5)>>2
	.byte	(.LBB3_7-.LBB3_5)>>2
	.byte	(.LBB3_6-.LBB3_5)>>2

	.text
	.globl	pvi_wf_get_version
	.p2align	2
	.type	pvi_wf_get_version,@function
pvi_wf_get_version:
.Lfunc_begin4:
	.loc	3 346 0 is_stmt 1
	.cfi_startproc
	.loc	3 347 39 prologue_end
	adrp	x8, global_waveform
	ldr	x8, [x8, :lo12:global_waveform]
.Ltmp243:
	.loc	3 350 6
	cbz	x8, .LBB4_2
.Ltmp244:
	.loc	3 353 2
	adrp	x0, pvi_wf_get_version.spi_id_buffer
	ldur	x9, [x8, #73]
	ldr	x10, [x8, #88]
	add	x0, x0, :lo12:pvi_wf_get_version.spi_id_buffer
	ldur	x11, [x8, #81]
	ldur	x8, [x8, #65]
.Ltmp245:
	stur	x10, [x0, #23]
	stp	x9, x11, [x0, #8]
	str	x8, [x0]
	.loc	3 354 20
	strb	wzr, [x0, #31]
	.loc	3 357 1
	ret
.LBB4_2:
.Ltmp246:
	.loc	3 0 1 is_stmt 0
	mov	x0, xzr
	.loc	3 357 1
	ret
.Ltmp247:
.Lfunc_end4:
	.size	pvi_wf_get_version, .Lfunc_end4-pvi_wf_get_version
	.cfi_endproc

	.type	pvi_mode_table,@object
	.section	.rodata,"a",@progbits
	.globl	pvi_mode_table
pvi_mode_table:
	.asciz	"\000\001\001\002\003\003\003\004\003"
	.asciz	"\000\001\007\003\003\005\006\004\005"
	.asciz	"\000\001\001\002\003\004\004\006\005"
	.asciz	"\000\001\007\002\003\004\005\006\004"
	.asciz	"\000\001\005\002\003\003\003\004\003"
	.asciz	"\000\001\001\002\003\004\004\006\004"
	.asciz	"\000\001\001\002\003\004\004\005\004"
	.asciz	"\000\001\001\002\003\004\005\006\004"
	.size	pvi_mode_table, 80

	.type	pvi_wf_get_lut.stype,@object
	.data
	.p2align	2
pvi_wf_get_lut.stype:
	.word	11
	.size	pvi_wf_get_lut.stype, 4

	.type	pvi_wf_get_lut.sftemp,@object
	.p2align	2
pvi_wf_get_lut.sftemp:
	.word	4294967295
	.size	pvi_wf_get_lut.sftemp, 4

	.type	global_waveform,@object
	.local	global_waveform
	.comm	global_waveform,8,8
	.type	need_pic,@object
	.p2align	2
need_pic:
	.word	16
	.size	need_pic, 4

	.type	waveformdata,@object
	.local	waveformdata
	.comm	waveformdata,8,8
	.type	.L.str,@object
	.section	.rodata.str1.1,"aMS",@progbits,1
.L.str:
	.asciz	"pvi waveform get frame number failed\n"
	.size	.L.str, 38

	.type	.L.str.1,@object
.L.str.1:
	.asciz	"pvi : input waveform version 0x%x\n"
	.size	.L.str.1, 35

	.type	maxpic,@object
	.local	maxpic
	.comm	maxpic,1,4
	.type	.L.str.2,@object
.L.str.2:
	.asciz	"pvi : Unknow waveform version 0x%x, 0x%x, may be wrong waveform file\n"
	.size	.L.str.2, 70

	.type	pvi_wf_get_version.spi_id_buffer,@object
	.local	pvi_wf_get_version.spi_id_buffer
	.comm	pvi_wf_get_version.spi_id_buffer,32,1
	.type	.L.str.3,@object
.L.str.3:
	.asciz	"pvi: unspport PVI waveform type"
	.size	.L.str.3, 32

	.type	.L.str.4,@object
.L.str.4:
	.asciz	"pvi: %s %d check error\n"
	.size	.L.str.4, 24

	.type	.L__func__.get_wf_frm_num,@object
.L__func__.get_wf_frm_num:
	.asciz	"get_wf_frm_num"
	.size	.L__func__.get_wf_frm_num, 15

	.type	.L.str.5,@object
.L.str.5:
	.asciz	"waveformdata is NULL\n"
	.size	.L.str.5, 22

	.type	.L.str.6,@object
.L.str.6:
	.asciz	"pvi: decodec waveform error, framenum err\n"
	.size	.L.str.6, 43

	.section	".note.GNU-stack","",@progbits
	.addrsig
	.addrsig_sym pvi_wf_get_version.spi_id_buffer