// SPDX-License-Identifier: GPL-2.0
/*
 * Copyright (c) 2020 Rockchip Electronics Co. Ltd.
 *
 * Author: Zorro Liu <zorro.liu@rock-chips.com>
 */

	.text
	.file	"rkf_waveform.c"
	.file	1 "/home/lyx/rk-android14/kernel-6.1" "drivers/gpu/drm/rockchip/ebc-dev/epdlut/epd_lut.h"
	.file	2 "/home/lyx/rk-android14/kernel-6.1" "drivers/gpu/drm/rockchip/ebc-dev/epdlut/rkf_waveform.c"
	.file	3 "/home/lyx/rk-android14/kernel-6.1" "./include/linux/stddef.h"
	.file	4 "/home/lyx/rk-android14/kernel-6.1" "./include/linux/slab.h"
	.file	5 "/home/lyx/rk-android14/kernel-6.1" "./include/uapi/asm-generic/int-ll64.h"
	.file	6 "/home/lyx/rk-android14/kernel-6.1" "./include/asm-generic/int-ll64.h"
	.file	7 "/home/lyx/rk-android14/kernel-6.1" "./include/linux/types.h"
	.globl	rkf_wf_input
	.p2align	2
	.type	rkf_wf_input,@function
rkf_wf_input:
.Lfunc_begin0:
	.loc	2 128 0
	.cfi_sections .debug_frame
	.cfi_startproc
	str	x30, [x18], #8
	.cfi_escape 0x16, 0x12, 0x02, 0x82, 0x78
	stp	x29, x30, [sp, #-64]!
	stp	x24, x23, [sp, #16]
	mov	x29, sp
	stp	x22, x21, [sp, #32]
	stp	x20, x19, [sp, #48]
	.cfi_def_cfa w29, 64
	.cfi_offset w19, -8
	.cfi_offset w20, -16
	.cfi_offset w21, -24
	.cfi_offset w22, -32
	.cfi_offset w23, -40
	.cfi_offset w24, -48
	.cfi_offset w30, -56
	.cfi_offset w29, -64
.Ltmp0:
	.loc	2 132 6 prologue_end
	adrp	x22, global_waveform
	ldr	x8, [x22, :lo12:global_waveform]
.Ltmp1:
	.loc	2 132 6 is_stmt 0
	cbz	x8, .LBB0_3
.Ltmp2:
	.loc	2 0 6
	mov	w0, #-16
.Ltmp3:
.LBB0_2:
	.loc	2 152 1 is_stmt 1
	ldp	x20, x19, [sp, #48]
	ldp	x22, x21, [sp, #32]
	ldp	x24, x23, [sp, #16]
	ldp	x29, x30, [sp], #64
	ldr	x30, [x18, #-8]!
	ret
.Ltmp4:
.LBB0_3:
	.loc	2 93 6
	adrp	x1, .L.str.5
	mov	x19, x0
.Ltmp5:
	.loc	2 135 28
	add	x0, x0, #4
.Ltmp6:
	.loc	2 93 6
	add	x1, x1, :lo12:.L.str.5
	mov	w2, #12
	bl	strncmp
.Ltmp7:
	.loc	2 93 6 is_stmt 0
	cbnz	w0, .LBB0_12
.Ltmp8:
	.loc	2 106 16 is_stmt 1
	ldr	w23, [x19]
.Ltmp9:
	.loc	2 106 6 is_stmt 0
	cmp	w23, #64, lsl #12
	b.gt	.LBB0_14
.Ltmp10:
	.loc	2 0 6
	sxtw	x8, w23
.Ltmp11:
	.loc	2 83 2 is_stmt 1
	adrp	x21, crc32_table
	add	x21, x21, :lo12:crc32_table
	mov	w1, wzr
	mov	x0, x21
	mov	w2, #1024
.Ltmp12:
	.loc	2 109 12
	ldr	w20, [x19, x8]
.Ltmp13:
	.loc	2 0 12 is_stmt 0
	mov	w24, #3511
	movk	w24, #1217, lsl #16
.Ltmp14:
	.loc	2 83 2 is_stmt 1
	bl	memset
.Ltmp15:
	.loc	2 0 2 is_stmt 0
	mov	w13, #28088
	mov	w14, #14044
	mov	w15, #7022
	mov	w8, wzr
	mov	w9, wzr
	mov	w10, wzr
	mov	w11, wzr
	mov	x12, xzr
	movk	w13, #9736, lsl #16
	movk	w14, #4868, lsl #16
	movk	w15, #2434, lsl #16
	mov	w16, #-2147483648
	mov	w17, #1073741824
	mov	w0, #536870912
	mov	w1, #268435456
.Ltmp16:
.LBB0_6:
	.loc	2 68 8 is_stmt 1
	lsl	w2, w12, #24
	tst	w12, #0x40
	and	w2, w13, w2, asr #31
.Ltmp17:
	eor	w3, w2, w14
	csel	w2, w2, w3, eq
	tst	w12, #0x20
	eor	w3, w2, w15
	csel	w2, w2, w3, eq
	tst	w12, #0x10
	eor	w3, w2, w24
	csel	w2, w2, w3, eq
.Ltmp18:
	.loc	2 68 16 is_stmt 0
	eor	w3, w2, w8
.Ltmp19:
	.loc	2 68 8
	lsl	w2, w2, #1
.Ltmp20:
	eor	w4, w2, w24
	cmp	w3, #0
	csel	w2, w2, w4, ge
.Ltmp21:
	.loc	2 64 16 is_stmt 1
	add	w8, w8, w1
.Ltmp22:
	.loc	2 68 16
	eor	w3, w2, w9
.Ltmp23:
	.loc	2 68 8 is_stmt 0
	lsl	w2, w2, #1
.Ltmp24:
	eor	w4, w2, w24
	cmp	w3, #0
	csel	w2, w2, w4, ge
.Ltmp25:
	.loc	2 64 16 is_stmt 1
	add	w9, w9, w0
.Ltmp26:
	.loc	2 68 16
	eor	w3, w2, w10
.Ltmp27:
	.loc	2 68 8 is_stmt 0
	lsl	w2, w2, #1
.Ltmp28:
	eor	w4, w2, w24
	cmp	w3, #0
	csel	w2, w2, w4, ge
.Ltmp29:
	.loc	2 64 16 is_stmt 1
	add	w10, w10, w17
.Ltmp30:
	.loc	2 68 16
	eor	w3, w2, w11
.Ltmp31:
	.loc	2 68 8 is_stmt 0
	lsl	w2, w2, #1
.Ltmp32:
	eor	w4, w2, w24
	cmp	w3, #0
	csel	w2, w2, w4, ge
.Ltmp33:
	.loc	2 64 16 is_stmt 1
	add	w11, w11, w16
.Ltmp34:
	.loc	2 74 16
	str	w2, [x21, x12, lsl #2]
.Ltmp35:
	.loc	2 64 24
	add	x12, x12, #1
.Ltmp36:
	.loc	2 64 2 is_stmt 0
	cmp	x12, #256
	b.ne	.LBB0_6
.Ltmp37:
	.loc	2 0 2
	mov	w2, wzr
.Ltmp38:
	.loc	2 85 2 is_stmt 1
	cbz	w23, .LBB0_10
.Ltmp39:
	.loc	2 0 2 is_stmt 0
	mov	x8, x19
.Ltmp40:
.LBB0_9:
	.loc	2 86 60 is_stmt 1
	ldrb	w9, [x8], #1
.Ltmp41:
	.loc	2 85 16
	subs	w23, w23, #1
	.loc	2 86 58
	eor	w9, w9, w2, lsr #24
	.loc	2 86 30 is_stmt 0
	ldr	w9, [x21, w9, uxtw #2]
	.loc	2 86 28
	eor	w2, w9, w2, lsl #8
.Ltmp42:
	.loc	2 85 2 is_stmt 1
	b.ne	.LBB0_9
.Ltmp43:
.LBB0_10:
	.loc	2 112 6
	cmp	w20, w2
	b.ne	.LBB0_13
.Ltmp44:
	.loc	2 147 2
	adrp	x0, .L.str.2
	add	x1, x19, #20
	add	x0, x0, :lo12:.L.str.2
	bl	_printk
.Ltmp45:
	.loc	2 0 2 is_stmt 0
	mov	w0, wzr
.Ltmp46:
	.loc	2 149 18 is_stmt 1
	str	x19, [x22, :lo12:global_waveform]
	b	.LBB0_2
.Ltmp47:
.LBB0_12:
	.loc	2 96 3
	adrp	x0, .L.str.6
	add	x0, x0, :lo12:.L.str.6
	bl	_printk
.Ltmp48:
	.loc	2 137 3
	adrp	x0, .L.str
	add	x0, x0, :lo12:.L.str
	b	.LBB0_15
.Ltmp49:
.LBB0_13:
	.loc	2 113 3
	adrp	x0, .L.str.7
	mov	w1, w20
	add	x0, x0, :lo12:.L.str.7
	bl	_printk
.Ltmp50:
.LBB0_14:
	.loc	2 143 3
	adrp	x0, .L.str.1
	add	x0, x0, :lo12:.L.str.1
.Ltmp51:
.LBB0_15:
	.loc	2 0 0 is_stmt 0
	bl	_printk
.Ltmp52:
	mov	w0, #-1
	b	.LBB0_2
.Ltmp53:
.Lfunc_end0:
	.size	rkf_wf_input, .Lfunc_end0-rkf_wf_input
	.cfi_endproc

	.globl	rkf_wf_get_version
	.p2align	2
	.type	rkf_wf_get_version,@function
rkf_wf_get_version:
.Lfunc_begin1:
	.loc	2 161 0 is_stmt 1
	.cfi_startproc
	.loc	2 162 7 prologue_end
	adrp	x8, global_waveform
	ldr	x8, [x8, :lo12:global_waveform]
.Ltmp54:
	.loc	2 162 6 is_stmt 0
	add	x9, x8, #84
	cmp	x8, #0
	csel	x0, xzr, x9, eq
	.loc	2 166 1 is_stmt 1
	ret
.Ltmp55:
.Lfunc_end1:
	.size	rkf_wf_get_version, .Lfunc_end1-rkf_wf_get_version
	.cfi_endproc

	.globl	rkf_wf_get_lut
	.p2align	2
	.type	rkf_wf_get_lut,@function
rkf_wf_get_lut:
.Lfunc_begin2:
	.loc	2 543 0
	.cfi_startproc
	str	x30, [x18], #8
	.cfi_escape 0x16, 0x12, 0x02, 0x82, 0x78
	stp	x29, x30, [sp, #-80]!
	str	x25, [sp, #16]
	mov	x29, sp
	stp	x24, x23, [sp, #32]
	stp	x22, x21, [sp, #48]
	stp	x20, x19, [sp, #64]
	.cfi_def_cfa w29, 80
	.cfi_offset w19, -8
	.cfi_offset w20, -16
	.cfi_offset w21, -24
	.cfi_offset w22, -32
	.cfi_offset w23, -40
	.cfi_offset w24, -48
	.cfi_offset w25, -64
	.cfi_offset w30, -72
	.cfi_offset w29, -80
.Ltmp56:
	.loc	2 549 7 prologue_end
	adrp	x8, global_waveform
	ldr	x8, [x8, :lo12:global_waveform]
.Ltmp57:
	.loc	2 549 6 is_stmt 0
	cbz	x8, .LBB2_12
.Ltmp58:
	.loc	2 0 6
	mov	x20, x0
.Ltmp59:
	.loc	2 552 6 is_stmt 1
	cbz	x0, .LBB2_13
.Ltmp60:
	.loc	2 555 6
	cmp	w3, #32
	b.eq	.LBB2_18
.Ltmp61:
	.loc	2 566 28
	adrp	x23, rkf_wf_get_lut.sftemp
	.loc	2 566 19 is_stmt 0
	mov	w8, #26215
	movk	w8, #26214, lsl #16
.Ltmp62:
	.loc	2 560 6 is_stmt 1
	cmp	w1, #8
	mov	w11, #5
	mov	w19, w2
.Ltmp63:
	.loc	2 566 28
	ldrsw	x9, [x23, :lo12:rkf_wf_get_lut.sftemp]
	.loc	2 566 19 is_stmt 0
	smull	x10, w2, w8
.Ltmp64:
	.loc	2 560 6 is_stmt 1
	csel	w21, w11, w1, eq
.Ltmp65:
	.loc	2 0 6 is_stmt 0
	adrp	x25, rkf_wf_get_lut.stype
.Ltmp66:
	.loc	2 566 35 is_stmt 1
	mul	x8, x9, x8
	.loc	2 566 19 is_stmt 0
	lsr	x9, x10, #63
	asr	x10, x10, #33
	add	w24, w10, w9
	.loc	2 566 35
	lsr	x9, x8, #63
	asr	x8, x8, #33
	add	w8, w8, w9
	.loc	2 566 41
	cmp	w24, w8
	b.ne	.LBB2_5
.Ltmp67:
	.loc	2 0 41
	ldr	w9, [x25, :lo12:rkf_wf_get_lut.stype]
	.loc	2 566 41
	cmp	w9, w21
	b.eq	.LBB2_11
.Ltmp68:
.LBB2_5:
	.loc	2 569 6 is_stmt 1
	cmp	w21, #10
	b.eq	.LBB2_10
.Ltmp69:
	.loc	2 571 15
	ldr	x0, [x20, #8]
.Ltmp70:
	.loc	2 571 7 is_stmt 0
	cbz	x0, .LBB2_8
.Ltmp71:
	.loc	2 572 4 is_stmt 1
	bl	kfree
.Ltmp72:
	.loc	2 573 17
	str	xzr, [x20, #8]
.Ltmp73:
.LBB2_8:
	.loc	2 576 15
	mov	x0, x20
	mov	w1, w21
	mov	w2, w19
	bl	parse_wf_data
.Ltmp74:
	.loc	2 577 7
	tbnz	w0, #31, .LBB2_19
.Ltmp75:
	.loc	2 0 0 is_stmt 0
	mov	w22, w0
.Ltmp76:
	.loc	2 581 33 is_stmt 1
	ldr	x1, [x20, #16]
	.loc	2 581 3 is_stmt 0
	mov	x0, x20
	mov	w2, w22
	bl	rkf_lut_init_wf_table
.Ltmp77:
	.loc	2 582 21 is_stmt 1
	ldrb	w8, [x20, #1]
	mov	w9, #26215
	movk	w9, #26214, lsl #16
	.loc	2 583 21
	orr	w8, w22, w8, lsl #8
	str	w8, [x20]
.Ltmp78:
	.loc	2 587 27
	ldrsw	x8, [x23, :lo12:rkf_wf_get_lut.sftemp]
.Ltmp79:
	.loc	2 584 9
	str	w21, [x25, :lo12:rkf_wf_get_lut.stype]
.Ltmp80:
	.loc	2 587 34
	mul	x8, x8, x9
	lsr	x9, x8, #63
	asr	x8, x8, #33
	add	w8, w8, w9
.Ltmp81:
.LBB2_10:
	.loc	2 587 6 is_stmt 0
	cmp	w24, w8
	b.ne	.LBB2_14
.Ltmp82:
.LBB2_11:
	.loc	2 0 6
	mov	w0, wzr
	b	.LBB2_20
.Ltmp83:
.LBB2_12:
	mov	w0, #-19
.Ltmp84:
	b	.LBB2_20
.Ltmp85:
.LBB2_13:
	mov	w0, #-22
	b	.LBB2_20
.Ltmp86:
.LBB2_14:
	.loc	2 589 15 is_stmt 1
	ldr	x0, [x20, #8]
.Ltmp87:
	.loc	2 589 7 is_stmt 0
	cbz	x0, .LBB2_16
.Ltmp88:
	.loc	2 590 4 is_stmt 1
	bl	kfree
.Ltmp89:
	.loc	2 591 17
	str	xzr, [x20, #8]
.Ltmp90:
.LBB2_16:
	.loc	2 593 17
	bl	epd_overlay_lut
.Ltmp91:
	mov	w1, w0
.Ltmp92:
	.loc	2 594 15
	mov	x0, x20
	mov	w2, w19
	bl	parse_wf_data
.Ltmp93:
	.loc	2 595 7
	tbnz	w0, #31, .LBB2_19
.Ltmp94:
	.loc	2 0 0 is_stmt 0
	mov	w21, w0
.Ltmp95:
	.loc	2 599 33 is_stmt 1
	ldr	x1, [x20, #24]
	.loc	2 599 3 is_stmt 0
	mov	x0, x20
	mov	w2, w21
	bl	rkf_lut_init_wf_table
.Ltmp96:
	.loc	2 601 21 is_stmt 1
	ldrb	w8, [x20]
	mov	w0, wzr
	.loc	2 602 21
	bfi	w8, w21, #8, #24
	str	w8, [x20]
	.loc	2 603 10
	str	w19, [x23, :lo12:rkf_wf_get_lut.sftemp]
	b	.LBB2_20
.Ltmp97:
.LBB2_18:
	.loc	2 556 3
	adrp	x0, .L.str.3
	add	x0, x0, :lo12:.L.str.3
	bl	_printk
.Ltmp98:
	.loc	2 0 3 is_stmt 0
	mov	w0, #-22
	b	.LBB2_20
.Ltmp99:
.LBB2_19:
	adrp	x0, .L.str.4
.Ltmp100:
	add	x0, x0, :lo12:.L.str.4
	bl	_printk
.Ltmp101:
	mov	w0, #-5
.Ltmp102:
.LBB2_20:
	.loc	2 607 1 is_stmt 1
	ldp	x20, x19, [sp, #64]
	ldp	x22, x21, [sp, #48]
	ldp	x24, x23, [sp, #32]
	ldr	x25, [sp, #16]
	ldp	x29, x30, [sp], #80
	ldr	x30, [x18, #-8]!
	ret
.Ltmp103:
.Lfunc_end2:
	.size	rkf_wf_get_lut, .Lfunc_end2-rkf_wf_get_lut
	.cfi_endproc

	.p2align	2
	.type	parse_wf_data,@function
parse_wf_data:
.Lfunc_begin3:
	.loc	2 466 0
	.cfi_startproc
	str	x30, [x18], #8
	.cfi_escape 0x16, 0x12, 0x02, 0x82, 0x78
	stp	x29, x30, [sp, #-64]!
	stp	x24, x23, [sp, #16]
	mov	x29, sp
	stp	x22, x21, [sp, #32]
	stp	x20, x19, [sp, #48]
	.cfi_def_cfa w29, 64
	.cfi_offset w19, -8
	.cfi_offset w20, -16
	.cfi_offset w21, -24
	.cfi_offset w22, -32
	.cfi_offset w23, -40
	.cfi_offset w24, -48
	.cfi_offset w30, -56
	.cfi_offset w29, -64
.Ltmp104:
	.loc	2 470 2 prologue_end
	cmp	w1, #7
	b.hi	.LBB3_14
.Ltmp105:
	.loc	2 0 2 is_stmt 0
	adrp	x9, .LJTI3_0
	mov	w8, w1
	add	x9, x9, :lo12:.LJTI3_0
	mov	x19, x0
.Ltmp106:
	adr	x10, .LBB3_2
	ldrb	w11, [x9, x8]
	add	x10, x10, x11, lsl #2
	br	x10
.Ltmp107:
.LBB3_2:
	.loc	2 188 34 is_stmt 1
	adrp	x8, global_waveform
.Ltmp108:
	.loc	2 173 9
	bic	w10, w2, w2, asr #31
.Ltmp109:
	.loc	2 174 9
	cmp	w10, #50
	mov	w11, #50
	mov	x9, xzr
.Ltmp110:
	csel	w10, w10, w11, lo
.Ltmp111:
	.loc	2 188 34
	ldr	x8, [x8, :lo12:global_waveform]
.Ltmp112:
	.loc	2 176 2
	add	x11, x8, #148
.Ltmp113:
.LBB3_3:
	.loc	2 177 14
	ldrb	w12, [x11, x9]
.Ltmp114:
	.loc	2 177 7 is_stmt 0
	cmp	w12, w10, uxtb
	b.hi	.LBB3_6
.Ltmp115:
	.loc	2 176 23 is_stmt 1
	add	x9, x9, #1
.Ltmp116:
	.loc	2 176 2 is_stmt 0
	cmp	x9, #50
	b.ne	.LBB3_3
.Ltmp117:
	.loc	2 0 2
	mov	x9, xzr
.Ltmp118:
.LBB3_6:
	.loc	2 229 14 is_stmt 1
	add	x9, x8, x9, lsl #2
.Ltmp119:
	.loc	4 558 9
	mov	w1, #3520
.Ltmp120:
	.loc	2 229 14
	ldr	w9, [x9, #596]
.Ltmp121:
	.loc	2 230 19
	add	x24, x8, x9
.Ltmp122:
	.loc	2 237 9
	ldrb	w20, [x24]
.Ltmp123:
	.loc	2 333 11
	add	x23, x20, #15
	.loc	2 333 39 is_stmt 0
	lsr	x8, x23, #2
.Ltmp124:
	and	x22, x8, #0x7c
.Ltmp125:
	.loc	4 558 9 is_stmt 1
	mov	x0, x22
	bl	__kmalloc
.Ltmp126:
	.loc	2 246 6
	cbz	x0, .LBB3_14
.Ltmp127:
	.loc	2 249 36
	add	x1, x24, #4
	.loc	2 249 2 is_stmt 0
	mov	x2, x22
	.loc	2 0 0
	mov	x21, x0
.Ltmp128:
	.loc	2 249 2
	bl	memcpy
.Ltmp129:
	.loc	2 265 27 is_stmt 1
	lsl	w8, w23, #6
.Ltmp130:
	.loc	4 558 9
	mov	w1, #3520
.Ltmp131:
	.loc	2 265 27
	and	w0, w8, #0x7c00
.Ltmp132:
	.loc	4 558 9
	bl	__kmalloc
.Ltmp133:
	.loc	2 266 6
	cbz	x0, .LBB3_52
.Ltmp134:
	.loc	2 269 2
	cbz	w20, .LBB3_13
.Ltmp135:
	.loc	2 0 0 is_stmt 0
	lsr	w11, w23, #4
.Ltmp136:
	mov	w10, #16384
.Ltmp137:
	.loc	2 269 2
	cmp	w11, #1
	mov	w12, #1365
	mov	w8, wzr
	mov	w9, wzr
	movk	w10, #21, lsl #16
	csinc	w11, w11, wzr, gt
.Ltmp138:
	.loc	2 0 2
	movk	w12, #5440, lsl #16
	mov	x13, x21
.Ltmp139:
.LBB3_10:
	mov	w15, wzr
	mov	w14, wzr
.Ltmp140:
	.loc	2 270 15 is_stmt 1
	ldr	w16, [x13]
.Ltmp141:
.LBB3_11:
	.loc	2 272 26
	asr	w17, w16, w15
	.loc	2 272 31 is_stmt 0
	add	w3, w8, w14
	.loc	2 272 36
	and	w1, w17, #0x3
.Ltmp142:
	.loc	2 276 26 is_stmt 1
	lsl	w17, w17, #30
.Ltmp143:
	.loc	2 279 13
	add	w4, w3, #3
.Ltmp144:
	.loc	2 271 17
	add	w14, w14, #16
.Ltmp145:
	.loc	2 0 17 is_stmt 0
	mul	w2, w1, w10
	.loc	2 271 17
	add	w15, w15, #2
.Ltmp146:
	.loc	2 276 19 is_stmt 1
	bfi	w17, w1, #12, #2
.Ltmp147:
	.loc	2 271 3
	cmp	w14, #256
.Ltmp148:
	.loc	2 276 19
	orr	w17, w17, w2
.Ltmp149:
	.loc	2 279 13
	add	w2, w3, #1
.Ltmp150:
	.loc	2 276 19
	madd	w17, w1, w12, w17
.Ltmp151:
	.loc	2 279 13
	add	w1, w3, #2
	.loc	2 279 20 is_stmt 0
	str	w17, [x0, w2, sxtw #2]
.Ltmp152:
	.loc	2 279 13
	add	w2, w3, #4
	.loc	2 279 20
	str	w17, [x0, w1, sxtw #2]
.Ltmp153:
	.loc	2 279 13
	add	w1, w3, #5
	.loc	2 279 20
	str	w17, [x0, w4, sxtw #2]
.Ltmp154:
	.loc	2 279 13
	add	w4, w3, #6
	.loc	2 279 20
	str	w17, [x0, w2, sxtw #2]
.Ltmp155:
	.loc	2 279 13
	add	w2, w3, #7
	.loc	2 279 20
	str	w17, [x0, w1, sxtw #2]
.Ltmp156:
	.loc	2 279 13
	add	w1, w3, #8
	.loc	2 279 20
	str	w17, [x0, w4, sxtw #2]
.Ltmp157:
	.loc	2 279 13
	add	w4, w3, #9
	.loc	2 279 20
	str	w17, [x0, w2, sxtw #2]
.Ltmp158:
	.loc	2 279 13
	add	w2, w3, #10
	.loc	2 279 20
	str	w17, [x0, w1, sxtw #2]
.Ltmp159:
	.loc	2 279 13
	add	w1, w3, #11
	.loc	2 279 20
	str	w17, [x0, w4, sxtw #2]
.Ltmp160:
	str	w17, [x0, w2, sxtw #2]
.Ltmp161:
	.loc	2 279 13
	add	w2, w3, #12
	.loc	2 279 20
	str	w17, [x0, w1, sxtw #2]
.Ltmp162:
	.loc	2 279 13
	add	w1, w3, #13
	.loc	2 279 20
	str	w17, [x0, w3, sxtw #2]
.Ltmp163:
	str	w17, [x0, w2, sxtw #2]
.Ltmp164:
	.loc	2 279 13
	add	w2, w3, #14
	.loc	2 279 20
	str	w17, [x0, w1, sxtw #2]
.Ltmp165:
	.loc	2 279 13
	add	w1, w3, #15
	.loc	2 279 20
	str	w17, [x0, w2, sxtw #2]
.Ltmp166:
	str	w17, [x0, w1, sxtw #2]
.Ltmp167:
	.loc	2 271 3 is_stmt 1
	b.ne	.LBB3_11
.Ltmp168:
	.loc	2 270 21
	add	x13, x13, #4
.Ltmp169:
	.loc	2 269 24
	add	w9, w9, #1
.Ltmp170:
	.loc	2 269 2 is_stmt 0
	add	w8, w8, w14
	cmp	w9, w11
	b.ne	.LBB3_10
.Ltmp171:
.LBB3_13:
	.loc	2 341 15 is_stmt 1
	str	x0, [x19, #8]
	.loc	2 0 0 is_stmt 0
	mov	x0, x21
	bl	kfree
.Ltmp172:
	b	.LBB3_51
.Ltmp173:
.LBB3_14:
	mov	w20, #-1
	b	.LBB3_51
.Ltmp174:
.LBB3_15:
	.loc	2 188 34 is_stmt 1
	adrp	x8, global_waveform
.Ltmp175:
	.loc	2 173 9
	bic	w10, w2, w2, asr #31
.Ltmp176:
	.loc	2 174 9
	cmp	w10, #50
	mov	w11, #50
	mov	x9, xzr
.Ltmp177:
	csel	w10, w10, w11, lo
.Ltmp178:
	.loc	2 188 34
	ldr	x8, [x8, :lo12:global_waveform]
.Ltmp179:
	.loc	2 176 2
	add	x11, x8, #468
.Ltmp180:
.LBB3_16:
	.loc	2 177 14
	ldrb	w12, [x11, x9]
.Ltmp181:
	.loc	2 177 7 is_stmt 0
	cmp	w12, w10, uxtb
	b.hi	.LBB3_19
.Ltmp182:
	.loc	2 176 23 is_stmt 1
	add	x9, x9, #1
.Ltmp183:
	.loc	2 176 2 is_stmt 0
	cmp	x9, #50
	b.ne	.LBB3_16
.Ltmp184:
	.loc	2 0 2
	mov	x9, xzr
.Ltmp185:
.LBB3_19:
	.loc	2 229 14 is_stmt 1
	add	x9, x8, x9, lsl #2
	ldr	w9, [x9, #1876]
.Ltmp186:
	.loc	2 0 14 is_stmt 0
	b	.LBB3_48
.Ltmp187:
.LBB3_20:
	.loc	2 188 34 is_stmt 1
	adrp	x8, global_waveform
.Ltmp188:
	.loc	2 173 9
	bic	w10, w2, w2, asr #31
.Ltmp189:
	.loc	2 174 9
	cmp	w10, #50
	mov	w11, #50
	mov	x9, xzr
.Ltmp190:
	csel	w10, w10, w11, lo
.Ltmp191:
	.loc	2 188 34
	ldr	x8, [x8, :lo12:global_waveform]
.Ltmp192:
	.loc	2 176 2
	add	x11, x8, #212
.Ltmp193:
.LBB3_21:
	.loc	2 177 14
	ldrb	w12, [x11, x9]
.Ltmp194:
	.loc	2 177 7 is_stmt 0
	cmp	w12, w10, uxtb
	b.hi	.LBB3_27
.Ltmp195:
	.loc	2 176 23 is_stmt 1
	add	x9, x9, #1
.Ltmp196:
	.loc	2 176 2 is_stmt 0
	cmp	x9, #50
	b.ne	.LBB3_21
	b	.LBB3_26
.Ltmp197:
.LBB3_23:
	.loc	2 188 34 is_stmt 1
	adrp	x8, global_waveform
.Ltmp198:
	.loc	2 173 9
	bic	w10, w2, w2, asr #31
.Ltmp199:
	.loc	2 174 9
	cmp	w10, #50
	mov	w11, #50
	mov	x9, xzr
.Ltmp200:
	csel	w10, w10, w11, lo
.Ltmp201:
	.loc	2 188 34
	ldr	x8, [x8, :lo12:global_waveform]
.Ltmp202:
	.loc	2 176 2
	add	x11, x8, #212
.Ltmp203:
.LBB3_24:
	.loc	2 177 14
	ldrb	w12, [x11, x9]
.Ltmp204:
	.loc	2 177 7 is_stmt 0
	cmp	w12, w10, uxtb
	b.hi	.LBB3_27
.Ltmp205:
	.loc	2 176 23 is_stmt 1
	add	x9, x9, #1
.Ltmp206:
	.loc	2 176 2 is_stmt 0
	cmp	x9, #50
	b.ne	.LBB3_24
.Ltmp207:
.LBB3_26:
	.loc	2 0 2
	mov	x9, xzr
.Ltmp208:
.LBB3_27:
	add	x9, x8, x9, lsl #2
	ldr	w9, [x9, #852]
	b	.LBB3_48
.Ltmp209:
.LBB3_28:
	.loc	2 188 34 is_stmt 1
	adrp	x8, global_waveform
.Ltmp210:
	.loc	2 173 9
	bic	w10, w2, w2, asr #31
.Ltmp211:
	.loc	2 174 9
	cmp	w10, #50
	mov	w11, #50
	mov	x9, xzr
.Ltmp212:
	csel	w10, w10, w11, lo
.Ltmp213:
	.loc	2 188 34
	ldr	x8, [x8, :lo12:global_waveform]
.Ltmp214:
	.loc	2 176 2
	add	x11, x8, #276
.Ltmp215:
.LBB3_29:
	.loc	2 177 14
	ldrb	w12, [x11, x9]
.Ltmp216:
	.loc	2 177 7 is_stmt 0
	cmp	w12, w10, uxtb
	b.hi	.LBB3_32
.Ltmp217:
	.loc	2 176 23 is_stmt 1
	add	x9, x9, #1
.Ltmp218:
	.loc	2 176 2 is_stmt 0
	cmp	x9, #50
	b.ne	.LBB3_29
.Ltmp219:
	.loc	2 0 2
	mov	x9, xzr
.Ltmp220:
.LBB3_32:
	.loc	2 229 14 is_stmt 1
	add	x9, x8, x9, lsl #2
	ldr	w9, [x9, #1108]
.Ltmp221:
	.loc	2 0 14 is_stmt 0
	b	.LBB3_48
.Ltmp222:
.LBB3_33:
	.loc	2 188 34 is_stmt 1
	adrp	x8, global_waveform
.Ltmp223:
	.loc	2 173 9
	bic	w10, w2, w2, asr #31
.Ltmp224:
	.loc	2 174 9
	cmp	w10, #50
	mov	w11, #50
	mov	x9, xzr
.Ltmp225:
	csel	w10, w10, w11, lo
.Ltmp226:
	.loc	2 188 34
	ldr	x8, [x8, :lo12:global_waveform]
.Ltmp227:
	.loc	2 176 2
	add	x11, x8, #340
.Ltmp228:
.LBB3_34:
	.loc	2 177 14
	ldrb	w12, [x11, x9]
.Ltmp229:
	.loc	2 177 7 is_stmt 0
	cmp	w12, w10, uxtb
	b.hi	.LBB3_37
.Ltmp230:
	.loc	2 176 23 is_stmt 1
	add	x9, x9, #1
.Ltmp231:
	.loc	2 176 2 is_stmt 0
	cmp	x9, #50
	b.ne	.LBB3_34
.Ltmp232:
	.loc	2 0 2
	mov	x9, xzr
.Ltmp233:
.LBB3_37:
	.loc	2 229 14 is_stmt 1
	add	x9, x8, x9, lsl #2
	ldr	w9, [x9, #1364]
.Ltmp234:
	.loc	2 0 14 is_stmt 0
	b	.LBB3_48
.Ltmp235:
.LBB3_38:
	.loc	2 188 34 is_stmt 1
	adrp	x8, global_waveform
.Ltmp236:
	.loc	2 173 9
	bic	w10, w2, w2, asr #31
.Ltmp237:
	.loc	2 174 9
	cmp	w10, #50
	mov	w11, #50
	mov	x9, xzr
.Ltmp238:
	csel	w10, w10, w11, lo
.Ltmp239:
	.loc	2 188 34
	ldr	x8, [x8, :lo12:global_waveform]
.Ltmp240:
	.loc	2 176 2
	add	x11, x8, #404
.Ltmp241:
.LBB3_39:
	.loc	2 177 14
	ldrb	w12, [x11, x9]
.Ltmp242:
	.loc	2 177 7 is_stmt 0
	cmp	w12, w10, uxtb
	b.hi	.LBB3_42
.Ltmp243:
	.loc	2 176 23 is_stmt 1
	add	x9, x9, #1
.Ltmp244:
	.loc	2 176 2 is_stmt 0
	cmp	x9, #50
	b.ne	.LBB3_39
.Ltmp245:
	.loc	2 0 2
	mov	x9, xzr
.Ltmp246:
.LBB3_42:
	.loc	2 229 14 is_stmt 1
	add	x9, x8, x9, lsl #2
	ldr	w9, [x9, #1620]
.Ltmp247:
	.loc	2 0 14 is_stmt 0
	b	.LBB3_48
.Ltmp248:
.LBB3_43:
	.loc	2 188 34 is_stmt 1
	adrp	x8, global_waveform
.Ltmp249:
	.loc	2 173 9
	bic	w10, w2, w2, asr #31
.Ltmp250:
	.loc	2 174 9
	cmp	w10, #50
	mov	w11, #50
	mov	x9, xzr
.Ltmp251:
	csel	w10, w10, w11, lo
.Ltmp252:
	.loc	2 188 34
	ldr	x8, [x8, :lo12:global_waveform]
.Ltmp253:
	.loc	2 176 2
	add	x11, x8, #532
.Ltmp254:
.LBB3_44:
	.loc	2 177 14
	ldrb	w12, [x11, x9]
.Ltmp255:
	.loc	2 177 7 is_stmt 0
	cmp	w12, w10, uxtb
	b.hi	.LBB3_47
.Ltmp256:
	.loc	2 176 23 is_stmt 1
	add	x9, x9, #1
.Ltmp257:
	.loc	2 176 2 is_stmt 0
	cmp	x9, #50
	b.ne	.LBB3_44
.Ltmp258:
	.loc	2 0 2
	mov	x9, xzr
.Ltmp259:
.LBB3_47:
	.loc	2 229 14 is_stmt 1
	add	x9, x8, x9, lsl #2
	ldr	w9, [x9, #2132]
.Ltmp260:
.LBB3_48:
	.loc	2 0 0 is_stmt 0
	add	x23, x8, x9
.Ltmp261:
	mov	w1, #3520
.Ltmp262:
	ldrb	w22, [x23]
	lsl	x20, x22, #6
.Ltmp263:
	mov	x0, x20
	bl	__kmalloc
.Ltmp264:
	cbz	x0, .LBB3_50
.Ltmp265:
	add	x1, x23, #4
	mov	x2, x20
	mov	x21, x0
.Ltmp266:
	bl	memcpy
.Ltmp267:
	mov	w20, w22
.Ltmp268:
	str	x21, [x19, #8]
.Ltmp269:
	b	.LBB3_51
.Ltmp270:
.LBB3_50:
	mov	w20, #-1
.Ltmp271:
	str	xzr, [x19, #8]
.Ltmp272:
.LBB3_51:
	.loc	2 530 1 is_stmt 1
	mov	w0, w20
	ldp	x20, x19, [sp, #48]
	ldp	x22, x21, [sp, #32]
	ldp	x24, x23, [sp, #16]
	ldp	x29, x30, [sp], #64
	ldr	x30, [x18, #-8]!
	ret
.LBB3_52:
.Ltmp273:
	.loc	2 0 0 is_stmt 0
	mov	x0, x21
	.loc	2 341 15 is_stmt 1
	str	xzr, [x19, #8]
	.loc	2 0 0 is_stmt 0
	bl	kfree
.Ltmp274:
	mov	w20, #-1
.Ltmp275:
	b	.LBB3_51
.Ltmp276:
.Lfunc_end3:
	.size	parse_wf_data, .Lfunc_end3-parse_wf_data
	.cfi_endproc
	.section	.rodata,"a",@progbits
.LJTI3_0:
	.byte	(.LBB3_2-.LBB3_2)>>2
	.byte	(.LBB3_15-.LBB3_2)>>2
	.byte	(.LBB3_20-.LBB3_2)>>2
	.byte	(.LBB3_23-.LBB3_2)>>2
	.byte	(.LBB3_28-.LBB3_2)>>2
	.byte	(.LBB3_33-.LBB3_2)>>2
	.byte	(.LBB3_38-.LBB3_2)>>2
	.byte	(.LBB3_43-.LBB3_2)>>2
	.file	8 "/home/lyx/rk-android14/kernel-6.1" "./include/uapi/asm-generic/posix_types.h"

	.text
	.p2align	2
	.type	rkf_lut_init_wf_table,@function
rkf_lut_init_wf_table:
.Lfunc_begin4:
	.loc	2 448 0 is_stmt 1
	.cfi_startproc
	.loc	2 452 2 prologue_end
	cmp	w2, #1
	b.lt	.LBB4_5
.Ltmp277:
	.loc	2 0 2 is_stmt 0
	mov	w8, wzr
	mov	w9, wzr
	mov	x10, xzr
.Ltmp278:
	.loc	2 452 14
	mov	w11, w2
.Ltmp279:
	.loc	2 452 2
	add	x12, x1, #7
.Ltmp280:
.LBB4_2:
	.loc	2 453 34 is_stmt 1
	ldr	x15, [x0, #8]
.Ltmp281:
	and	x14, x8, #0x7ffffff
	mov	x13, xzr
	add	x14, x12, x14, lsl #5
.Ltmp282:
	.loc	2 454 3
	add	x15, x15, w9, sxtw #2
.Ltmp283:
.LBB4_3:
	.loc	2 0 3 is_stmt 0
	add	x16, x15, x13
.Ltmp284:
	.loc	2 454 31
	add	x13, x13, #4
.Ltmp285:
	.loc	2 454 3
	cmp	x13, #64
.Ltmp286:
	.loc	2 456 16 is_stmt 1
	ldrb	w17, [x16]
	.loc	2 456 15 is_stmt 0
	and	w17, w17, #0x3
.Ltmp287:
	.loc	2 457 54 is_stmt 1
	sturb	w17, [x14, #-7]
.Ltmp288:
	.loc	2 456 16
	ldrb	w17, [x16]
	.loc	2 456 15 is_stmt 0
	ubfx	w17, w17, #2, #2
.Ltmp289:
	.loc	2 457 54 is_stmt 1
	sturb	w17, [x14, #-6]
.Ltmp290:
	.loc	2 456 16
	ldrb	w17, [x16]
	.loc	2 456 15 is_stmt 0
	ubfx	w17, w17, #4, #2
.Ltmp291:
	.loc	2 457 54 is_stmt 1
	sturb	w17, [x14, #-5]
.Ltmp292:
	.loc	2 456 16
	ldrb	w17, [x16]
	.loc	2 456 15 is_stmt 0
	lsr	w17, w17, #6
.Ltmp293:
	.loc	2 457 54 is_stmt 1
	sturb	w17, [x14, #-4]
.Ltmp294:
	.loc	2 456 16
	ldrb	w17, [x16, #1]
	.loc	2 456 15 is_stmt 0
	and	w17, w17, #0x3
.Ltmp295:
	.loc	2 457 54 is_stmt 1
	sturb	w17, [x14, #-3]
.Ltmp296:
	.loc	2 456 16
	ldr	w17, [x16]
	.loc	2 456 15 is_stmt 0
	ubfx	w17, w17, #10, #2
.Ltmp297:
	.loc	2 457 54 is_stmt 1
	sturb	w17, [x14, #-2]
.Ltmp298:
	.loc	2 456 16
	ldr	w17, [x16]
	.loc	2 456 15 is_stmt 0
	ubfx	w17, w17, #12, #2
.Ltmp299:
	.loc	2 457 54 is_stmt 1
	sturb	w17, [x14, #-1]
.Ltmp300:
	.loc	2 456 16
	ldr	w17, [x16]
	.loc	2 456 15 is_stmt 0
	ubfx	w17, w17, #14, #2
.Ltmp301:
	.loc	2 457 54 is_stmt 1
	strb	w17, [x14]
.Ltmp302:
	.loc	2 456 16
	ldrb	w17, [x16, #2]
	.loc	2 456 15 is_stmt 0
	and	w17, w17, #0x3
.Ltmp303:
	.loc	2 457 54 is_stmt 1
	strb	w17, [x14, #1]
.Ltmp304:
	.loc	2 456 16
	ldr	w17, [x16]
	.loc	2 456 15 is_stmt 0
	ubfx	w17, w17, #18, #2
.Ltmp305:
	.loc	2 457 54 is_stmt 1
	strb	w17, [x14, #2]
.Ltmp306:
	.loc	2 456 16
	ldr	w17, [x16]
	.loc	2 456 15 is_stmt 0
	ubfx	w17, w17, #20, #2
.Ltmp307:
	.loc	2 457 54 is_stmt 1
	strb	w17, [x14, #3]
.Ltmp308:
	.loc	2 456 16
	ldr	w17, [x16]
	.loc	2 456 15 is_stmt 0
	ubfx	w17, w17, #22, #2
.Ltmp309:
	.loc	2 457 54 is_stmt 1
	strb	w17, [x14, #4]
.Ltmp310:
	.loc	2 456 16
	ldrb	w17, [x16, #3]
	.loc	2 456 15 is_stmt 0
	and	w17, w17, #0x3
.Ltmp311:
	.loc	2 457 54 is_stmt 1
	strb	w17, [x14, #5]
.Ltmp312:
	.loc	2 456 16
	ldr	w17, [x16]
	.loc	2 456 15 is_stmt 0
	ubfx	w17, w17, #26, #2
.Ltmp313:
	.loc	2 457 54 is_stmt 1
	strb	w17, [x14, #6]
.Ltmp314:
	.loc	2 456 16
	ldr	w17, [x16]
	.loc	2 456 15 is_stmt 0
	ubfx	w17, w17, #28, #2
.Ltmp315:
	.loc	2 457 54 is_stmt 1
	strb	w17, [x14, #7]
.Ltmp316:
	.loc	2 456 16
	ldr	w16, [x16]
	.loc	2 456 39 is_stmt 0
	lsr	w16, w16, #30
.Ltmp317:
	.loc	2 457 54 is_stmt 1
	strb	w16, [x14, #8]
.Ltmp318:
	.loc	2 454 31
	add	x14, x14, #32
.Ltmp319:
	.loc	2 454 3 is_stmt 0
	b.ne	.LBB4_3
.Ltmp320:
	.loc	2 452 28 is_stmt 1
	add	x10, x10, #1
.Ltmp321:
	.loc	2 452 2 is_stmt 0
	add	w9, w9, #16
	add	w8, w8, #32
	cmp	x10, x11
	b.ne	.LBB4_2
.Ltmp322:
.LBB4_5:
	.loc	2 462 2 is_stmt 1
	ret
.Ltmp323:
.Lfunc_end4:
	.size	rkf_lut_init_wf_table, .Lfunc_end4-rkf_lut_init_wf_table
	.cfi_endproc

	.type	global_waveform,@object
	.local	global_waveform
	.comm	global_waveform,8,8
	.type	.L.str,@object
	.section	.rodata.str1.1,"aMS",@progbits,1
.L.str:
	.asciz	"rkf: failed to check RKF file format\n"
	.size	.L.str, 38

	.type	.L.str.1,@object
.L.str.1:
	.asciz	"rkf: failed to check crc RKF waveform\n"
	.size	.L.str.1, 39

	.type	.L.str.2,@object
.L.str.2:
	.asciz	"rkf file version: %s\n"
	.size	.L.str.2, 22

	.type	rkf_wf_get_lut.stype,@object
	.data
	.p2align	2
rkf_wf_get_lut.stype:
	.word	11
	.size	rkf_wf_get_lut.stype, 4

	.type	rkf_wf_get_lut.sftemp,@object
	.p2align	2
rkf_wf_get_lut.sftemp:
	.word	4294967295
	.size	rkf_wf_get_lut.sftemp, 4

	.type	.L.str.3,@object
	.section	.rodata.str1.1,"aMS",@progbits,1
.L.str.3:
	.asciz	"rkf: not support 5bit waveform\n"
	.size	.L.str.3, 32

	.type	.L.str.4,@object
.L.str.4:
	.asciz	"rkf waveform get frame number failed\n"
	.size	.L.str.4, 38

	.type	.L.str.5,@object
.L.str.5:
	.asciz	"rkf waveform"
	.size	.L.str.5, 13

	.type	.L.str.6,@object
.L.str.6:
	.asciz	"rkf: check format failed\n"
	.size	.L.str.6, 26

	.type	.L.str.7,@object
.L.str.7:
	.asciz	"[EINK]: waveform crc err readcrc = %x crccheck = %x\n"
	.size	.L.str.7, 53

	.type	crc32_table,@object
	.local	crc32_table
	.comm	crc32_table,1024,4
	.section	".note.GNU-stack","",@progbits
	.addrsig