// SPDX-License-Identifier: GPL-2.0
/*
 * Copyright (c) 2020 Rockchip Electronics Co. Ltd.
 *
 * Author: Zorro Liu <zorro.liu@rock-chips.com>
 */

	.text
	.file	"ebc_dev_y8.c"

	.section	.initcall6s.init,"a",@progbits
__initcall__kmod_rkebc__460_3895_ebc_init6s:
.Ltmp0:
	.word	ebc_init-.Ltmp0
	.text



	.file	1 "/home/lyx/rk-android14/kernel-6.1" "drivers/gpu/drm/rockchip/ebc-dev/ebc_dev_y8.c"
	.file	2 "/home/lyx/rk-android14/kernel-6.1" "./include/linux/init.h"
	.file	3 "/home/lyx/rk-android14/kernel-6.1" "./include/linux/platform_device.h"
	.file	4 "/home/lyx/rk-android14/kernel-6.1" "./include/linux/types.h"
	.file	5 "/home/lyx/rk-android14/kernel-6.1" "./include/linux/kobject.h"
	.file	6 "/home/lyx/rk-android14/kernel-6.1" "./include/asm-generic/qspinlock_types.h"
	.file	7 "/home/lyx/rk-android14/kernel-6.1" "./include/uapi/asm-generic/int-ll64.h"
	.file	8 "/home/lyx/rk-android14/kernel-6.1" "./include/asm-generic/int-ll64.h"
	.file	9 "/home/lyx/rk-android14/kernel-6.1" "./include/linux/spinlock_types_raw.h"
	.file	10 "/home/lyx/rk-android14/kernel-6.1" "./include/linux/spinlock_types.h"
	.file	11 "/home/lyx/rk-android14/kernel-6.1" "./include/uapi/asm-generic/posix_types.h"
	.file	12 "/home/lyx/rk-android14/kernel-6.1" "./include/linux/sysfs.h"
	.file	13 "/home/lyx/rk-android14/kernel-6.1" "./include/linux/fs.h"
	.file	14 "/home/lyx/rk-android14/kernel-6.1" "./include/linux/uidgid.h"
	.file	15 "/home/lyx/rk-android14/kernel-6.1" "./include/linux/dcache.h"
	.file	16 "/home/lyx/rk-android14/kernel-6.1" "./include/linux/seqlock.h"
	.file	17 "/home/lyx/rk-android14/kernel-6.1" "./include/linux/list_bl.h"
	.file	18 "/home/lyx/rk-android14/kernel-6.1" "./include/linux/lockref.h"
	.file	19 "/home/lyx/rk-android14/kernel-6.1" "./include/linux/mount.h"
	.file	20 "/home/lyx/rk-android14/kernel-6.1" "./include/linux/module.h"
	.file	21 "/home/lyx/rk-android14/kernel-6.1" "./include/linux/completion.h"
	.file	22 "/home/lyx/rk-android14/kernel-6.1" "./include/linux/swait.h"
	.file	23 "/home/lyx/rk-android14/kernel-6.1" "./include/linux/export.h"
	.file	24 "/home/lyx/rk-android14/kernel-6.1" "./include/linux/atomic/atomic-long.h"
	.file	25 "/home/lyx/rk-android14/kernel-6.1" "./include/linux/mutex.h"
	.file	26 "/home/lyx/rk-android14/kernel-6.1" "./include/linux/osq_lock.h"
	.file	27 "/home/lyx/rk-android14/kernel-6.1" "./include/linux/moduleparam.h"
	.file	28 "/home/lyx/rk-android14/kernel-6.1" "./arch/arm64/include/asm/extable.h"
	.file	29 "/home/lyx/rk-android14/kernel-6.1" "./include/linux/rbtree_types.h"
	.file	30 "/home/lyx/rk-android14/kernel-6.1" "./include/linux/rbtree_latch.h"
	.file	31 "/home/lyx/rk-android14/kernel-6.1" "./arch/arm64/include/asm/module.h"
	.file	32 "/home/lyx/rk-android14/kernel-6.1" "./include/uapi/linux/types.h"
	.file	33 "/home/lyx/rk-android14/kernel-6.1" "./include/asm-generic/bug.h"
	.file	34 "/home/lyx/rk-android14/kernel-6.1" "./include/uapi/linux/elf.h"
	.file	35 "/home/lyx/rk-android14/kernel-6.1" "./include/linux/tracepoint-defs.h"
	.file	36 "/home/lyx/rk-android14/kernel-6.1" "./include/linux/srcutree.h"
	.file	37 "/home/lyx/rk-android14/kernel-6.1" "./include/linux/rcu_segcblist.h"
	.file	38 "/home/lyx/rk-android14/kernel-6.1" "./include/linux/timer.h"
	.file	39 "/home/lyx/rk-android14/kernel-6.1" "./include/linux/workqueue.h"
	.file	40 "/home/lyx/rk-android14/kernel-6.1" "./include/linux/lockdep_types.h"
	.file	41 "/home/lyx/rk-android14/kernel-6.1" "./include/linux/jump_label.h"
	.file	42 "/home/lyx/rk-android14/kernel-6.1" "./include/linux/static_call_types.h"
	.file	43 "/home/lyx/rk-android14/kernel-6.1" "./include/linux/writeback.h"
	.file	44 "/home/lyx/rk-android14/kernel-6.1" "./include/linux/backing-dev-defs.h"
	.file	45 "/home/lyx/rk-android14/kernel-6.1" "./include/linux/refcount.h"
	.file	46 "/home/lyx/rk-android14/kernel-6.1" "./include/linux/kref.h"
	.file	47 "/home/lyx/rk-android14/kernel-6.1" "./include/linux/xarray.h"
	.file	48 "/home/lyx/rk-android14/kernel-6.1" "./include/linux/rwsem.h"
	.file	49 "/home/lyx/rk-android14/kernel-6.1" "./include/linux/wait.h"
	.file	50 "/home/lyx/rk-android14/kernel-6.1" "./include/linux/percpu_counter.h"
	.file	51 "/home/lyx/rk-android14/kernel-6.1" "./include/linux/flex_proportions.h"
	.file	52 "/home/lyx/rk-android14/kernel-6.1" "./include/linux/percpu-refcount.h"
	.file	53 "/home/lyx/rk-android14/kernel-6.1" "./include/linux/cgroup-defs.h"
	.file	54 "/home/lyx/rk-android14/kernel-6.1" "./include/linux/kernfs.h"
	.file	55 "/home/lyx/rk-android14/kernel-6.1" "./include/linux/llist.h"
	.file	56 "/home/lyx/rk-android14/kernel-6.1" "./include/linux/path.h"
	.file	57 "/home/lyx/rk-android14/kernel-6.1" "./include/linux/mm_types.h"
	.file	58 "/home/lyx/rk-android14/kernel-6.1" "./arch/arm64/include/asm/page.h"
	.file	59 "/home/lyx/rk-android14/kernel-6.1" "./include/linux/maple_tree.h"
	.file	60 "/home/lyx/rk-android14/kernel-6.1" "./arch/arm64/include/asm/pgtable-types.h"
	.file	61 "/home/lyx/rk-android14/kernel-6.1" "./include/linux/mm_types_task.h"
	.file	62 "/home/lyx/rk-android14/kernel-6.1" "./arch/arm64/include/asm/mmu.h"
	.file	63 "/home/lyx/rk-android14/kernel-6.1" "./arch/arm64/include/asm/thread_info.h"
	.file	64 "/home/lyx/rk-android14/kernel-6.1" "./include/linux/sched.h"
	.file	65 "/home/lyx/rk-android14/kernel-6.1" "./include/linux/smp_types.h"
	.file	66 "/home/lyx/rk-android14/kernel-6.1" "./include/linux/timerqueue.h"
	.file	67 "/home/lyx/rk-android14/kernel-6.1" "./include/linux/ktime.h"
	.file	68 "/home/lyx/rk-android14/kernel-6.1" "./include/linux/hrtimer.h"
	.file	69 "/home/lyx/rk-android14/kernel-6.1" "./include/linux/cpumask.h"
	.file	70 "/home/lyx/rk-android14/kernel-6.1" "./include/linux/plist.h"
	.file	71 "/home/lyx/rk-android14/kernel-6.1" "./include/linux/restart_block.h"
	.file	72 "/home/lyx/rk-android14/kernel-6.1" "./include/uapi/linux/time_types.h"
	.file	73 "/home/lyx/rk-android14/kernel-6.1" "./include/vdso/time32.h"
	.file	74 "/home/lyx/rk-android14/kernel-6.1" "./include/linux/pid.h"
	.file	75 "/home/lyx/rk-android14/kernel-6.1" "./include/linux/idr.h"
	.file	76 "/home/lyx/rk-android14/kernel-6.1" "./include/linux/pid_namespace.h"
	.file	77 "/home/lyx/rk-android14/kernel-6.1" "./include/linux/user_namespace.h"
	.file	78 "/home/lyx/rk-android14/kernel-6.1" "./include/linux/ns_common.h"
	.file	79 "/home/lyx/rk-android14/kernel-6.1" "./include/linux/key.h"
	.file	80 "/home/lyx/rk-android14/kernel-6.1" "./include/linux/time64.h"
	.file	81 "/home/lyx/rk-android14/kernel-6.1" "./include/linux/assoc_array.h"
	.file	82 "/home/lyx/rk-android14/kernel-6.1" "./include/linux/sysctl.h"
	.file	83 "/home/lyx/rk-android14/kernel-6.1" "./include/linux/posix-timers.h"
	.file	84 "/home/lyx/rk-android14/kernel-6.1" "./include/linux/cred.h"
	.file	85 "/home/lyx/rk-android14/kernel-6.1" "./include/linux/capability.h"
	.file	86 "/home/lyx/rk-android14/kernel-6.1" "./include/linux/sched/user.h"
	.file	87 "/home/lyx/rk-android14/kernel-6.1" "./include/linux/ratelimit_types.h"
	.file	88 "/home/lyx/rk-android14/kernel-6.1" "./include/linux/nsproxy.h"
	.file	89 "/home/lyx/rk-android14/kernel-6.1" "./include/linux/cgroup.h"
	.file	90 "/home/lyx/rk-android14/kernel-6.1" "./include/linux/sched/signal.h"
	.file	91 "/home/lyx/rk-android14/kernel-6.1" "./include/linux/signal_types.h"
	.file	92 "/home/lyx/rk-android14/kernel-6.1" "./include/uapi/asm-generic/signal.h"
	.file	93 "/home/lyx/rk-android14/kernel-6.1" "./include/linux/task_io_accounting.h"
	.file	94 "/home/lyx/rk-android14/kernel-6.1" "./include/uapi/linux/resource.h"
	.file	95 "/home/lyx/rk-android14/kernel-6.1" "./include/uapi/linux/taskstats.h"
	.file	96 "/home/lyx/rk-android14/kernel-6.1" "./include/uapi/asm-generic/signal-defs.h"
	.file	97 "/home/lyx/rk-android14/kernel-6.1" "./include/linux/seccomp.h"
	.file	98 "/home/lyx/rk-android14/kernel-6.1" "./include/linux/syscall_user_dispatch.h"
	.file	99 "/home/lyx/rk-android14/kernel-6.1" "./include/linux/blk_types.h"
	.file	100 "/home/lyx/rk-android14/kernel-6.1" "./include/linux/bvec.h"
	.file	101 "/home/lyx/rk-android14/kernel-6.1" "./include/linux/bio.h"
	.file	102 "/home/lyx/rk-android14/kernel-6.1" "./include/linux/mempool.h"
	.file	103 "/home/lyx/rk-android14/kernel-6.1" "./include/linux/swap.h"
	.file	104 "/home/lyx/rk-android14/kernel-6.1" "./include/linux/mmzone.h"
	.file	105 "/home/lyx/rk-android14/kernel-6.1" "./include/linux/list_nulls.h"
	.file	106 "/home/lyx/rk-android14/kernel-6.1" "./include/linux/cache.h"
	.file	107 "/home/lyx/rk-android14/kernel-6.1" "./include/linux/iocontext.h"
	.file	108 "/home/lyx/rk-android14/kernel-6.1" "./include/uapi/asm-generic/siginfo.h"
	.file	109 "/home/lyx/rk-android14/kernel-6.1" "./include/linux/nodemask.h"
	.file	110 "/home/lyx/rk-android14/kernel-6.1" "./include/asm-generic/compat.h"
	.file	111 "/home/lyx/rk-android14/kernel-6.1" "./include/linux/compat.h"
	.file	112 "/home/lyx/rk-android14/kernel-6.1" "./include/uapi/linux/rseq.h"
	.file	113 "/home/lyx/rk-android14/kernel-6.1" "./include/linux/memcontrol.h"
	.file	114 "/home/lyx/rk-android14/kernel-6.1" "./include/linux/page_counter.h"
	.file	115 "/home/lyx/rk-android14/kernel-6.1" "./include/linux/vmpressure.h"
	.file	116 "/home/lyx/rk-android14/kernel-6.1" "./include/linux/uprobes.h"
	.file	117 "/home/lyx/rk-android14/kernel-6.1" "./arch/arm64/include/asm/uprobes.h"
	.file	118 "/home/lyx/rk-android14/kernel-6.1" "./include/linux/vmalloc.h"
	.file	119 "/home/lyx/rk-android14/kernel-6.1" "./arch/arm64/include/asm/processor.h"
	.file	120 "/home/lyx/rk-android14/kernel-6.1" "./arch/arm64/include/uapi/asm/ptrace.h"
	.file	121 "/home/lyx/rk-android14/kernel-6.1" "./include/linux/memremap.h"
	.file	122 "/home/lyx/rk-android14/kernel-6.1" "./include/linux/mm.h"
	.file	123 "/home/lyx/rk-android14/kernel-6.1" "./include/asm-generic/pgtable-nop4d.h"
	.file	124 "/home/lyx/rk-android14/kernel-6.1" "./include/asm-generic/pgtable-nopud.h"
	.file	125 "/home/lyx/rk-android14/kernel-6.1" "./include/linux/range.h"
	.file	126 "/home/lyx/rk-android14/kernel-6.1" "./include/linux/pagemap.h"
	.file	127 "/home/lyx/rk-android14/kernel-6.1" "./include/linux/uio.h"
	.file	128 "/home/lyx/rk-android14/kernel-6.1" "./include/uapi/linux/uio.h"
	.file	129 "/home/lyx/rk-android14/kernel-6.1" "./include/asm-generic/qrwlock_types.h"
	.file	130 "/home/lyx/rk-android14/kernel-6.1" "./include/linux/rwlock_types.h"
	.file	131 "/home/lyx/rk-android14/kernel-6.1" "./include/linux/nfs_fs_i.h"
	.file	132 "/home/lyx/rk-android14/kernel-6.1" "./include/linux/seq_file.h"
	.file	133 "/home/lyx/rk-android14/kernel-6.1" "./include/linux/errseq.h"
	.file	134 "/home/lyx/rk-android14/kernel-6.1" "./include/linux/u64_stats_sync.h"
	.file	135 "/home/lyx/rk-android14/kernel-6.1" "./include/linux/sched/types.h"
	.file	136 "/home/lyx/rk-android14/kernel-6.1" "./include/linux/psi_types.h"
	.file	137 "/home/lyx/rk-android14/kernel-6.1" "./include/linux/bpf-cgroup-defs.h"
	.file	138 "/home/lyx/rk-android14/kernel-6.1" "./include/linux/quota.h"
	.file	139 "/home/lyx/rk-android14/kernel-6.1" "./include/linux/projid.h"
	.file	140 "/home/lyx/rk-android14/kernel-6.1" "./include/linux/shrinker.h"
	.file	141 "/home/lyx/rk-android14/kernel-6.1" "./include/linux/rcu_sync.h"
	.file	142 "/home/lyx/rk-android14/kernel-6.1" "./include/linux/percpu-rwsem.h"
	.file	143 "/home/lyx/rk-android14/kernel-6.1" "./include/linux/rcuwait.h"
	.file	144 "/home/lyx/rk-android14/kernel-6.1" "./include/linux/uuid.h"
	.file	145 "/home/lyx/rk-android14/kernel-6.1" "./include/linux/list_lru.h"
	.file	146 "/home/lyx/rk-android14/kernel-6.1" "./include/linux/delayed_call.h"
	.file	147 "/home/lyx/rk-android14/kernel-6.1" "./include/linux/mnt_idmapping.h"
	.file	148 "/home/lyx/rk-android14/kernel-6.1" "./include/linux/stat.h"
	.file	149 "/home/lyx/rk-android14/kernel-6.1" "./include/linux/migrate_mode.h"
	.file	150 "/home/lyx/rk-android14/kernel-6.1" "./include/linux/kobject_ns.h"
	.file	151 "/home/lyx/rk-android14/kernel-6.1" "./include/linux/device.h"
	.file	152 "/home/lyx/rk-android14/kernel-6.1" "./include/linux/pm.h"
	.file	153 "/home/lyx/rk-android14/kernel-6.1" "./include/linux/device/bus.h"
	.file	154 "/home/lyx/rk-android14/kernel-6.1" "./include/linux/device/driver.h"
	.file	155 "/home/lyx/rk-android14/kernel-6.1" "./include/linux/mod_devicetable.h"
	.file	156 "/home/lyx/rk-android14/kernel-6.1" "./include/linux/pm_wakeup.h"
	.file	157 "/home/lyx/rk-android14/kernel-6.1" "./include/linux/energy_model.h"
	.file	158 "/home/lyx/rk-android14/kernel-6.1" "./include/linux/irqdomain.h"
	.file	159 "/home/lyx/rk-android14/kernel-6.1" "./include/linux/of.h"
	.file	160 "/home/lyx/rk-android14/kernel-6.1" "./include/linux/fwnode.h"
	.file	161 "/home/lyx/rk-android14/kernel-6.1" "./include/linux/property.h"
	.file	162 "/home/lyx/rk-android14/kernel-6.1" "./include/linux/irq.h"
	.file	163 "/home/lyx/rk-android14/kernel-6.1" "./include/linux/interrupt.h"
	.file	164 "/home/lyx/rk-android14/kernel-6.1" "./include/linux/irqdesc.h"
	.file	165 "/home/lyx/rk-android14/kernel-6.1" "./include/linux/irqreturn.h"
	.file	166 "/home/lyx/rk-android14/kernel-6.1" "./include/linux/irqhandler.h"
	.file	167 "/home/lyx/rk-android14/kernel-6.1" "./arch/arm64/include/asm/device.h"
	.file	168 "/home/lyx/rk-android14/kernel-6.1" "./include/linux/device/class.h"
	.file	169 "/home/lyx/rk-android14/kernel-6.1" "./include/linux/ioport.h"
	.file	170 "/home/lyx/rk-android14/kernel-6.1" "drivers/gpu/drm/rockchip/ebc-dev/tcon/ebc_tcon.h"
	.file	171 "/home/lyx/rk-android14/kernel-6.1" "drivers/gpu/drm/rockchip/ebc-dev/ebc_panel.h"
	.file	172 "/home/lyx/rk-android14/kernel-6.1" "drivers/gpu/drm/rockchip/ebc-dev/pmic/ebc_pmic.h"
	.file	173 "/home/lyx/rk-android14/kernel-6.1" "./include/linux/thermal.h"
	.file	174 "/home/lyx/rk-android14/kernel-6.1" "./include/uapi/linux/thermal.h"
	.file	175 "/home/lyx/rk-android14/kernel-6.1" "drivers/gpu/drm/rockchip/ebc-dev/epdlut/epd_lut.h"
	.file	176 "/home/lyx/rk-android14/kernel-6.1" "drivers/gpu/drm/rockchip/ebc-dev/bufmanage/buf_manage.h"
	.file	177 "/home/lyx/rk-android14/kernel-6.1" "./include/linux/wakelock.h"
	.file	178 "/home/lyx/rk-android14/kernel-6.1" "./include/linux/semaphore.h"
	.file	179 "/home/lyx/rk-android14/kernel-6.1" "./include/linux/miscdevice.h"
	.file	180 "/home/lyx/rk-android14/kernel-6.1" "./include/linux/stddef.h"
	.file	181 "/home/lyx/rk-android14/kernel-6.1" "./include/linux/io.h"
	.file	182 "/home/lyx/rk-android14/kernel-6.1" "./include/linux/dma-direction.h"
	.file	183 "/home/lyx/rk-android14/kernel-6.1" "drivers/gpu/drm/rockchip/ebc-dev/ebc_dev.h"
	.file	184 "/home/lyx/rk-android14/kernel-6.1" "./include/linux/slab.h"
	.globl	refresh_new_image
	.p2align	2
	.type	refresh_new_image,@function
refresh_new_image:
.Lfunc_begin0:
	.loc	1 497 0
	.cfi_sections .debug_frame
	.cfi_startproc
	stp	x28, x27, [sp, #-80]!
	stp	x26, x25, [sp, #16]
	stp	x24, x23, [sp, #32]
	stp	x22, x21, [sp, #48]
	stp	x20, x19, [sp, #64]
	.cfi_def_cfa_offset 80
	.cfi_offset w19, -8
	.cfi_offset w20, -16
	.cfi_offset w21, -24
	.cfi_offset w22, -32
	.cfi_offset w23, -40
	.cfi_offset w24, -48
	.cfi_offset w25, -56
	.cfi_offset w26, -64
	.cfi_offset w27, -72
	.cfi_offset w28, -80
.Ltmp1:
	.loc	1 505 20 prologue_end
	ldp	w9, w8, [x5, #92]
.Ltmp2:
	.loc	1 505 26 is_stmt 0
	add	w10, w8, #7
	cmp	w8, #0
	csel	w11, w10, w8, lt
.Ltmp3:
	.loc	1 507 2 is_stmt 1
	cmp	w9, #1
	b.lt	.LBB0_125
.Ltmp4:
	.loc	1 0 0 is_stmt 0
	asr	w11, w11, #3
.Ltmp5:
	mov	w10, wzr
.Ltmp6:
	.loc	1 507 2
	sub	w14, w11, #1
	mov	w12, #-268435456
	mov	x13, #1030792151040
	add	x14, x14, #1
	mov	x15, #263882790666240
	mov	x16, #67553994410557440
	mov	x17, #-2305843009213693952
	mov	x5, #63050394783186944
.Ltmp7:
	.loc	1 0 2
	mov	x6, #246290604621824
	mov	x7, #962072674304
	mov	w19, #-536870912
	b	.LBB0_4
.Ltmp8:
.LBB0_2:
	.loc	1 508 3 is_stmt 1
	add	x3, x3, x14, lsl #3
.Ltmp9:
.LBB0_3:
	.loc	1 507 27
	add	w10, w10, #1
.Ltmp10:
	.loc	1 507 2 is_stmt 0
	cmp	w10, w9
	b.eq	.LBB0_125
.Ltmp11:
.LBB0_4:
	.loc	1 508 3 is_stmt 1
	cmp	w8, #8
	b.lt	.LBB0_3
.Ltmp12:
	.loc	1 0 3 is_stmt 0
	mov	w20, w11
	mov	x21, x3
.Ltmp13:
.LBB0_6:
	.loc	1 509 23 is_stmt 1
	ldr	x27, [x21], #8
.Ltmp14:
	.loc	1 511 21
	ldr	x26, [x1], #8
.Ltmp15:
	.loc	1 512 21
	ldr	x24, [x0]
.Ltmp16:
	.loc	1 513 20
	ldr	x22, [x2], #8
.Ltmp17:
	.loc	1 516 8
	cbnz	x27, .LBB0_24
.Ltmp18:
	.loc	1 518 5
	and	x27, x26, #0xf0
.Ltmp19:
	cmp	w27, #240
	b.ne	.LBB0_26
.Ltmp20:
	.loc	1 0 5 is_stmt 0
	mov	x23, xzr
	mov	w25, #255
.Ltmp21:
.LBB0_9:
	.loc	1 519 5 is_stmt 1
	and	x27, x26, #0xf000
.Ltmp22:
	cmp	w27, #15, lsl #12
	b.ne	.LBB0_28
.Ltmp23:
	.loc	1 519 5 is_stmt 0
	orr	x25, x25, #0xff00
.Ltmp24:
.LBB0_11:
	.loc	1 520 5 is_stmt 1
	and	x27, x26, #0xf00000
.Ltmp25:
	cmp	x27, #3840, lsl #12
	b.ne	.LBB0_30
.Ltmp26:
	.loc	1 520 5 is_stmt 0
	orr	x25, x25, #0xff0000
.Ltmp27:
.LBB0_13:
	.loc	1 521 5 is_stmt 1
	and	x27, x26, #0xf0000000
.Ltmp28:
	cmp	w27, w12
	b.ne	.LBB0_32
.Ltmp29:
	.loc	1 521 5 is_stmt 0
	orr	x25, x25, #0xff000000
.Ltmp30:
.LBB0_15:
	.loc	1 522 5 is_stmt 1
	and	x27, x26, #0xf000000000
.Ltmp31:
	cmp	x27, x13
	b.ne	.LBB0_34
.Ltmp32:
	.loc	1 522 5 is_stmt 0
	orr	x25, x25, #0xff00000000
.Ltmp33:
.LBB0_17:
	.loc	1 523 5 is_stmt 1
	and	x27, x26, #0xf00000000000
.Ltmp34:
	cmp	x27, x15
	b.ne	.LBB0_36
.Ltmp35:
	.loc	1 523 5 is_stmt 0
	orr	x25, x25, #0xff0000000000
.Ltmp36:
.LBB0_19:
	.loc	1 524 5 is_stmt 1
	and	x27, x26, #0xf0000000000000
.Ltmp37:
	cmp	x27, x16
	b.ne	.LBB0_38
.Ltmp38:
	.loc	1 524 5 is_stmt 0
	orr	x25, x25, #0xff000000000000
.Ltmp39:
.LBB0_21:
	.loc	1 525 5 is_stmt 1
	lsr	x27, x26, #60
	cmp	x27, #15
	b.lo	.LBB0_40
.Ltmp40:
.LBB0_22:
	.loc	1 0 0 is_stmt 0
	orr	x25, x25, #0xff00000000000000
.Ltmp41:
.LBB0_23:
	.loc	1 537 19 is_stmt 1
	bic	x24, x24, x25
.Ltmp42:
	.loc	1 538 36
	and	x22, x25, x22
.Ltmp43:
	.loc	1 538 19 is_stmt 0
	orr	x22, x24, x22
.Ltmp44:
	.loc	1 508 17 is_stmt 1
	subs	w20, w20, #1
.Ltmp45:
	.loc	1 539 16
	str	x23, [x4], #8
.Ltmp46:
	.loc	1 540 17
	str	x22, [x0], #8
.Ltmp47:
	.loc	1 508 3
	b.ne	.LBB0_6
	b	.LBB0_2
.Ltmp48:
.LBB0_24:
	.loc	1 0 0 is_stmt 0
	ldr	x23, [x4]
.Ltmp49:
	.loc	1 527 5 is_stmt 1
	tst	x27, #0xff
.Ltmp50:
	.loc	1 527 5 is_stmt 0
	b.eq	.LBB0_57
.Ltmp51:
	.loc	1 0 5
	mov	x25, xzr
	b	.LBB0_59
.Ltmp52:
.LBB0_26:
	.loc	1 518 5 is_stmt 1
	cbnz	w27, .LBB0_43
.Ltmp53:
	.loc	1 0 5 is_stmt 0
	mov	x25, xzr
.Ltmp54:
	.loc	1 518 5
	and	x24, x24, #0xffffffffffffff00
.Ltmp55:
	.loc	1 0 5
	mov	w23, #1
	b	.LBB0_9
.Ltmp56:
.LBB0_28:
	.loc	1 519 5 is_stmt 1
	and	x24, x24, #0xffffffffffff00ff
.Ltmp57:
	.loc	1 519 5 is_stmt 0
	cbnz	w27, .LBB0_45
.Ltmp58:
	.loc	1 519 5
	orr	x23, x23, #0x100
.Ltmp59:
	.loc	1 0 5
	b	.LBB0_11
.Ltmp60:
.LBB0_30:
	.loc	1 520 5 is_stmt 1
	and	x24, x24, #0xffffffffff00ffff
.Ltmp61:
	.loc	1 520 5 is_stmt 0
	cbnz	x27, .LBB0_47
.Ltmp62:
	.loc	1 520 5
	orr	x23, x23, #0x10000
.Ltmp63:
	.loc	1 0 5
	b	.LBB0_13
.Ltmp64:
.LBB0_32:
	.loc	1 521 5 is_stmt 1
	and	x24, x24, #0xffffffff00ffffff
.Ltmp65:
	.loc	1 521 5 is_stmt 0
	cbnz	w27, .LBB0_49
.Ltmp66:
	.loc	1 521 5
	orr	x23, x23, #0x1000000
.Ltmp67:
	.loc	1 0 5
	b	.LBB0_15
.Ltmp68:
.LBB0_34:
	.loc	1 522 5 is_stmt 1
	and	x24, x24, #0xffffff00ffffffff
.Ltmp69:
	.loc	1 522 5 is_stmt 0
	cbnz	x27, .LBB0_51
.Ltmp70:
	.loc	1 522 5
	orr	x23, x23, #0x100000000
.Ltmp71:
	.loc	1 0 5
	b	.LBB0_17
.Ltmp72:
.LBB0_36:
	.loc	1 523 5 is_stmt 1
	and	x24, x24, #0xffff00ffffffffff
.Ltmp73:
	.loc	1 523 5 is_stmt 0
	cbnz	x27, .LBB0_53
.Ltmp74:
	.loc	1 523 5
	orr	x23, x23, #0x10000000000
.Ltmp75:
	.loc	1 0 5
	b	.LBB0_19
.Ltmp76:
.LBB0_38:
	.loc	1 524 5 is_stmt 1
	and	x24, x24, #0xff00ffffffffffff
.Ltmp77:
	.loc	1 524 5 is_stmt 0
	cbnz	x27, .LBB0_55
.Ltmp78:
	.loc	1 524 5
	orr	x23, x23, #0x1000000000000
.Ltmp79:
	.loc	1 0 5
	b	.LBB0_21
.Ltmp80:
.LBB0_40:
	and	x26, x26, #0xf000000000000000
.Ltmp81:
	.loc	1 525 5 is_stmt 1
	cmp	x26, x17
	b.eq	.LBB0_82
.Ltmp82:
	cbz	x26, .LBB0_81
.Ltmp83:
.LBB0_42:
	.loc	1 0 0 is_stmt 0
	and	x24, x24, #0xffffffffffffff
.Ltmp84:
	orr	x24, x24, x26
.Ltmp85:
	b	.LBB0_23
.Ltmp86:
.LBB0_43:
	.loc	1 518 5 is_stmt 1
	cmp	w27, #224
	b.ne	.LBB0_83
.Ltmp87:
	.loc	1 518 5 is_stmt 0
	and	x23, x24, #0xffffffffffffff00
.Ltmp88:
	.loc	1 0 5
	mov	x25, xzr
	.loc	1 518 5
	orr	x24, x23, #0xf0
.Ltmp89:
	.loc	1 0 5
	mov	w23, #1
	b	.LBB0_9
.Ltmp90:
.LBB0_45:
	.loc	1 519 5 is_stmt 1
	cmp	w27, #14, lsl #12
	b.ne	.LBB0_84
.Ltmp91:
	.loc	1 519 5 is_stmt 0
	orr	x24, x24, #0xf000
.Ltmp92:
	orr	x23, x23, #0x100
.Ltmp93:
	.loc	1 0 5
	b	.LBB0_11
.Ltmp94:
.LBB0_47:
	.loc	1 520 5 is_stmt 1
	cmp	x27, #3584, lsl #12
	b.ne	.LBB0_85
.Ltmp95:
	.loc	1 520 5 is_stmt 0
	orr	x24, x24, #0xf00000
.Ltmp96:
	orr	x23, x23, #0x10000
.Ltmp97:
	.loc	1 0 5
	b	.LBB0_13
.Ltmp98:
.LBB0_49:
	.loc	1 521 5 is_stmt 1
	cmp	w27, w19
	b.ne	.LBB0_86
.Ltmp99:
	.loc	1 521 5 is_stmt 0
	orr	x24, x24, #0xf0000000
.Ltmp100:
	orr	x23, x23, #0x1000000
.Ltmp101:
	.loc	1 0 5
	b	.LBB0_15
.Ltmp102:
.LBB0_51:
	.loc	1 522 5 is_stmt 1
	cmp	x27, x7
	b.ne	.LBB0_87
.Ltmp103:
	.loc	1 522 5 is_stmt 0
	orr	x24, x24, #0xf000000000
.Ltmp104:
	orr	x23, x23, #0x100000000
.Ltmp105:
	.loc	1 0 5
	b	.LBB0_17
.Ltmp106:
.LBB0_53:
	.loc	1 523 5 is_stmt 1
	cmp	x27, x6
	b.ne	.LBB0_88
.Ltmp107:
	.loc	1 523 5 is_stmt 0
	orr	x24, x24, #0xf00000000000
.Ltmp108:
	orr	x23, x23, #0x10000000000
.Ltmp109:
	.loc	1 0 5
	b	.LBB0_19
.Ltmp110:
.LBB0_55:
	.loc	1 524 5 is_stmt 1
	cmp	x27, x5
	b.ne	.LBB0_89
.Ltmp111:
	.loc	1 524 5 is_stmt 0
	orr	x24, x24, #0xf0000000000000
.Ltmp112:
	orr	x23, x23, #0x1000000000000
.Ltmp113:
	.loc	1 0 5
	b	.LBB0_21
.Ltmp114:
.LBB0_57:
	.loc	1 527 5 is_stmt 1
	and	x23, x23, #0xffffffffffffff00
.Ltmp115:
	.loc	1 527 5 is_stmt 0
	and	x28, x26, #0xf0
.Ltmp116:
	cmp	w28, #240
	b.ne	.LBB0_90
.Ltmp117:
	.loc	1 0 5
	mov	w25, #255
.Ltmp118:
.LBB0_59:
	.loc	1 528 5 is_stmt 1
	tst	x27, #0xff00
.Ltmp119:
	.loc	1 528 5 is_stmt 0
	b.eq	.LBB0_66
.Ltmp120:
	.loc	1 529 5 is_stmt 1
	tst	x27, #0xff0000
.Ltmp121:
	.loc	1 529 5 is_stmt 0
	b.eq	.LBB0_68
.Ltmp122:
.LBB0_61:
	.loc	1 530 5 is_stmt 1
	tst	x27, #0xff000000
.Ltmp123:
	.loc	1 530 5 is_stmt 0
	b.eq	.LBB0_70
.Ltmp124:
.LBB0_62:
	.loc	1 531 5 is_stmt 1
	tst	x27, #0xff00000000
.Ltmp125:
	.loc	1 531 5 is_stmt 0
	b.eq	.LBB0_72
.Ltmp126:
.LBB0_63:
	.loc	1 532 5 is_stmt 1
	tst	x27, #0xff0000000000
.Ltmp127:
	.loc	1 532 5 is_stmt 0
	b.eq	.LBB0_74
.Ltmp128:
.LBB0_64:
	.loc	1 533 5 is_stmt 1
	tst	x27, #0xff000000000000
.Ltmp129:
	.loc	1 533 5 is_stmt 0
	b.eq	.LBB0_76
.Ltmp130:
.LBB0_65:
	.loc	1 534 5 is_stmt 1
	lsr	x27, x27, #56
.Ltmp131:
	cbnz	x27, .LBB0_23
	b	.LBB0_78
.Ltmp132:
.LBB0_66:
	.loc	1 528 5
	and	x23, x23, #0xffffffffffff00ff
.Ltmp133:
	.loc	1 528 5 is_stmt 0
	and	x28, x26, #0xf000
.Ltmp134:
	cmp	w28, #15, lsl #12
	b.ne	.LBB0_92
.Ltmp135:
	.loc	1 528 5
	orr	x25, x25, #0xff00
.Ltmp136:
	.loc	1 529 5 is_stmt 1
	tst	x27, #0xff0000
.Ltmp137:
	.loc	1 529 5 is_stmt 0
	b.ne	.LBB0_61
.Ltmp138:
.LBB0_68:
	.loc	1 529 5
	and	x23, x23, #0xffffffffff00ffff
.Ltmp139:
	.loc	1 529 5
	and	x28, x26, #0xf00000
.Ltmp140:
	cmp	x28, #3840, lsl #12
	b.ne	.LBB0_96
.Ltmp141:
	.loc	1 529 5
	orr	x25, x25, #0xff0000
.Ltmp142:
	.loc	1 530 5 is_stmt 1
	tst	x27, #0xff000000
.Ltmp143:
	.loc	1 530 5 is_stmt 0
	b.ne	.LBB0_62
.Ltmp144:
.LBB0_70:
	.loc	1 530 5
	and	x23, x23, #0xffffffff00ffffff
.Ltmp145:
	.loc	1 530 5
	and	x28, x26, #0xf0000000
.Ltmp146:
	cmp	w28, w12
	b.ne	.LBB0_100
.Ltmp147:
	.loc	1 530 5
	orr	x25, x25, #0xff000000
.Ltmp148:
	.loc	1 531 5 is_stmt 1
	tst	x27, #0xff00000000
.Ltmp149:
	.loc	1 531 5 is_stmt 0
	b.ne	.LBB0_63
.Ltmp150:
.LBB0_72:
	.loc	1 531 5
	and	x23, x23, #0xffffff00ffffffff
.Ltmp151:
	.loc	1 531 5
	and	x28, x26, #0xf000000000
.Ltmp152:
	cmp	x28, x13
	b.ne	.LBB0_104
.Ltmp153:
	.loc	1 531 5
	orr	x25, x25, #0xff00000000
.Ltmp154:
	.loc	1 532 5 is_stmt 1
	tst	x27, #0xff0000000000
.Ltmp155:
	.loc	1 532 5 is_stmt 0
	b.ne	.LBB0_64
.Ltmp156:
.LBB0_74:
	.loc	1 532 5
	and	x23, x23, #0xffff00ffffffffff
.Ltmp157:
	.loc	1 532 5
	and	x28, x26, #0xf00000000000
.Ltmp158:
	cmp	x28, x15
	b.ne	.LBB0_108
.Ltmp159:
	.loc	1 532 5
	orr	x25, x25, #0xff0000000000
.Ltmp160:
	.loc	1 533 5 is_stmt 1
	tst	x27, #0xff000000000000
.Ltmp161:
	.loc	1 533 5 is_stmt 0
	b.ne	.LBB0_65
.Ltmp162:
.LBB0_76:
	.loc	1 533 5
	and	x23, x23, #0xff00ffffffffffff
.Ltmp163:
	.loc	1 533 5
	and	x28, x26, #0xf0000000000000
.Ltmp164:
	cmp	x28, x16
	b.ne	.LBB0_112
.Ltmp165:
	.loc	1 533 5
	orr	x25, x25, #0xff000000000000
.Ltmp166:
	.loc	1 534 5 is_stmt 1
	lsr	x27, x27, #56
.Ltmp167:
	cbnz	x27, .LBB0_23
.Ltmp168:
.LBB0_78:
	.loc	1 534 5 is_stmt 0
	and	x23, x23, #0xffffffffffffff
.Ltmp169:
	.loc	1 534 5
	lsr	x27, x26, #60
	cmp	x27, #15
	b.hs	.LBB0_22
.Ltmp170:
	.loc	1 0 0
	and	x26, x26, #0xf000000000000000
.Ltmp171:
	.loc	1 534 5
	cmp	x26, x17
	b.eq	.LBB0_82
.Ltmp172:
	cbnz	x26, .LBB0_42
.Ltmp173:
.LBB0_81:
	.loc	1 0 0
	and	x24, x24, #0xffffffffffffff
.Ltmp174:
	orr	x23, x23, #0x100000000000000
.Ltmp175:
	b	.LBB0_23
.Ltmp176:
.LBB0_82:
	mov	x26, #-1152921504606846976
	orr	x23, x23, #0x100000000000000
.Ltmp177:
	bfxil	x26, x24, #0, #56
.Ltmp178:
	mov	x24, x26
.Ltmp179:
	b	.LBB0_23
.Ltmp180:
.LBB0_83:
	.loc	1 518 5 is_stmt 1
	and	x24, x24, #0xffffffffffffff00
.Ltmp181:
	.loc	1 0 5 is_stmt 0
	mov	x23, xzr
	mov	x25, xzr
	.loc	1 518 5
	orr	x24, x24, x27
.Ltmp182:
	.loc	1 0 5
	b	.LBB0_9
.Ltmp183:
.LBB0_84:
	.loc	1 519 5 is_stmt 1
	orr	x24, x24, x27
.Ltmp184:
	.loc	1 0 5 is_stmt 0
	b	.LBB0_11
.Ltmp185:
.LBB0_85:
	.loc	1 520 5 is_stmt 1
	orr	x24, x24, x27
.Ltmp186:
	.loc	1 0 5 is_stmt 0
	b	.LBB0_13
.Ltmp187:
.LBB0_86:
	.loc	1 521 5 is_stmt 1
	orr	x24, x24, x27
.Ltmp188:
	.loc	1 0 5 is_stmt 0
	b	.LBB0_15
.Ltmp189:
.LBB0_87:
	.loc	1 522 5 is_stmt 1
	orr	x24, x24, x27
.Ltmp190:
	.loc	1 0 5 is_stmt 0
	b	.LBB0_17
.Ltmp191:
.LBB0_88:
	.loc	1 523 5 is_stmt 1
	orr	x24, x24, x27
.Ltmp192:
	.loc	1 0 5 is_stmt 0
	b	.LBB0_19
.Ltmp193:
.LBB0_89:
	.loc	1 524 5 is_stmt 1
	orr	x24, x24, x27
.Ltmp194:
	.loc	1 0 5 is_stmt 0
	b	.LBB0_21
.Ltmp195:
.LBB0_90:
	.loc	1 527 5 is_stmt 1
	cbnz	w28, .LBB0_116
.Ltmp196:
	.loc	1 0 5 is_stmt 0
	mov	x25, xzr
.Ltmp197:
	.loc	1 527 5
	and	x24, x24, #0xffffffffffffff00
.Ltmp198:
	orr	x23, x23, #0x1
.Ltmp199:
	.loc	1 0 5
	b	.LBB0_59
.Ltmp200:
.LBB0_92:
	.loc	1 528 5 is_stmt 1
	and	x24, x24, #0xffffffffffff00ff
.Ltmp201:
	.loc	1 528 5 is_stmt 0
	cbz	w28, .LBB0_95
.Ltmp202:
	cmp	w28, #14, lsl #12
	b.ne	.LBB0_118
.Ltmp203:
	.loc	1 528 5
	orr	x24, x24, #0xf000
.Ltmp204:
.LBB0_95:
	.loc	1 0 0
	orr	x23, x23, #0x100
.Ltmp205:
	.loc	1 529 5 is_stmt 1
	tst	x27, #0xff0000
.Ltmp206:
	.loc	1 529 5 is_stmt 0
	b.ne	.LBB0_61
	b	.LBB0_68
.Ltmp207:
.LBB0_96:
	.loc	1 529 5
	and	x24, x24, #0xffffffffff00ffff
.Ltmp208:
	.loc	1 529 5
	cbz	x28, .LBB0_99
.Ltmp209:
	cmp	x28, #3584, lsl #12
	b.ne	.LBB0_119
.Ltmp210:
	.loc	1 529 5
	orr	x24, x24, #0xf00000
.Ltmp211:
.LBB0_99:
	.loc	1 0 0
	orr	x23, x23, #0x10000
.Ltmp212:
	.loc	1 530 5 is_stmt 1
	tst	x27, #0xff000000
.Ltmp213:
	.loc	1 530 5 is_stmt 0
	b.ne	.LBB0_62
	b	.LBB0_70
.Ltmp214:
.LBB0_100:
	.loc	1 530 5
	and	x24, x24, #0xffffffff00ffffff
.Ltmp215:
	.loc	1 530 5
	cbz	w28, .LBB0_103
.Ltmp216:
	cmp	w28, w19
	b.ne	.LBB0_120
.Ltmp217:
	.loc	1 530 5
	orr	x24, x24, #0xf0000000
.Ltmp218:
.LBB0_103:
	.loc	1 0 0
	orr	x23, x23, #0x1000000
.Ltmp219:
	.loc	1 531 5 is_stmt 1
	tst	x27, #0xff00000000
.Ltmp220:
	.loc	1 531 5 is_stmt 0
	b.ne	.LBB0_63
	b	.LBB0_72
.Ltmp221:
.LBB0_104:
	.loc	1 531 5
	and	x24, x24, #0xffffff00ffffffff
.Ltmp222:
	.loc	1 531 5
	cbz	x28, .LBB0_107
.Ltmp223:
	cmp	x28, x7
	b.ne	.LBB0_121
.Ltmp224:
	.loc	1 531 5
	orr	x24, x24, #0xf000000000
.Ltmp225:
.LBB0_107:
	.loc	1 0 0
	orr	x23, x23, #0x100000000
.Ltmp226:
	.loc	1 532 5 is_stmt 1
	tst	x27, #0xff0000000000
.Ltmp227:
	.loc	1 532 5 is_stmt 0
	b.ne	.LBB0_64
	b	.LBB0_74
.Ltmp228:
.LBB0_108:
	.loc	1 532 5
	and	x24, x24, #0xffff00ffffffffff
.Ltmp229:
	.loc	1 532 5
	cbz	x28, .LBB0_111
.Ltmp230:
	cmp	x28, x6
	b.ne	.LBB0_122
.Ltmp231:
	.loc	1 532 5
	orr	x24, x24, #0xf00000000000
.Ltmp232:
.LBB0_111:
	.loc	1 0 0
	orr	x23, x23, #0x10000000000
.Ltmp233:
	.loc	1 533 5 is_stmt 1
	tst	x27, #0xff000000000000
.Ltmp234:
	.loc	1 533 5 is_stmt 0
	b.ne	.LBB0_65
	b	.LBB0_76
.Ltmp235:
.LBB0_112:
	.loc	1 533 5
	and	x24, x24, #0xff00ffffffffffff
.Ltmp236:
	.loc	1 533 5
	cbz	x28, .LBB0_115
.Ltmp237:
	cmp	x28, x5
	b.ne	.LBB0_123
.Ltmp238:
	.loc	1 533 5
	orr	x24, x24, #0xf0000000000000
.Ltmp239:
.LBB0_115:
	.loc	1 0 0
	orr	x23, x23, #0x1000000000000
.Ltmp240:
	.loc	1 534 5 is_stmt 1
	lsr	x27, x27, #56
.Ltmp241:
	cbnz	x27, .LBB0_23
	b	.LBB0_78
.Ltmp242:
.LBB0_116:
	.loc	1 527 5
	cmp	w28, #224
	b.ne	.LBB0_124
.Ltmp243:
	.loc	1 527 5 is_stmt 0
	and	x24, x24, #0xffffffffffffff00
.Ltmp244:
	.loc	1 0 5
	mov	x25, xzr
	.loc	1 527 5
	orr	x24, x24, #0xf0
.Ltmp245:
	orr	x23, x23, #0x1
.Ltmp246:
	.loc	1 0 5
	b	.LBB0_59
.Ltmp247:
.LBB0_118:
	.loc	1 528 5 is_stmt 1
	orr	x24, x24, x28
.Ltmp248:
	.loc	1 529 5
	tst	x27, #0xff0000
.Ltmp249:
	.loc	1 529 5 is_stmt 0
	b.ne	.LBB0_61
	b	.LBB0_68
.Ltmp250:
.LBB0_119:
	.loc	1 529 5
	orr	x24, x24, x28
.Ltmp251:
	.loc	1 530 5 is_stmt 1
	tst	x27, #0xff000000
.Ltmp252:
	.loc	1 530 5 is_stmt 0
	b.ne	.LBB0_62
	b	.LBB0_70
.Ltmp253:
.LBB0_120:
	.loc	1 530 5
	orr	x24, x24, x28
.Ltmp254:
	.loc	1 531 5 is_stmt 1
	tst	x27, #0xff00000000
.Ltmp255:
	.loc	1 531 5 is_stmt 0
	b.ne	.LBB0_63
	b	.LBB0_72
.Ltmp256:
.LBB0_121:
	.loc	1 531 5
	orr	x24, x24, x28
.Ltmp257:
	.loc	1 532 5 is_stmt 1
	tst	x27, #0xff0000000000
.Ltmp258:
	.loc	1 532 5 is_stmt 0
	b.ne	.LBB0_64
	b	.LBB0_74
.Ltmp259:
.LBB0_122:
	.loc	1 532 5
	orr	x24, x24, x28
.Ltmp260:
	.loc	1 533 5 is_stmt 1
	tst	x27, #0xff000000000000
.Ltmp261:
	.loc	1 533 5 is_stmt 0
	b.ne	.LBB0_65
	b	.LBB0_76
.Ltmp262:
.LBB0_123:
	.loc	1 533 5
	orr	x24, x24, x28
.Ltmp263:
	.loc	1 534 5 is_stmt 1
	lsr	x27, x27, #56
.Ltmp264:
	cbnz	x27, .LBB0_23
	b	.LBB0_78
.Ltmp265:
.LBB0_124:
	.loc	1 527 5
	and	x24, x24, #0xffffffffffffff00
.Ltmp266:
	.loc	1 0 5 is_stmt 0
	mov	x25, xzr
	.loc	1 527 5
	orr	x24, x24, x28
.Ltmp267:
	.loc	1 0 5
	b	.LBB0_59
.Ltmp268:
.LBB0_125:
	.loc	1 543 1 is_stmt 1
	ldp	x20, x19, [sp, #64]
	ldp	x22, x21, [sp, #48]
	ldp	x24, x23, [sp, #32]
	ldp	x26, x25, [sp, #16]
	ldp	x28, x27, [sp], #80
	ret
.Ltmp269:
.Lfunc_end0:
	.size	refresh_new_image, .Lfunc_end0-refresh_new_image
	.cfi_endproc

	.globl	refresh_new_image_auto
	.p2align	2
	.type	refresh_new_image_auto,@function
refresh_new_image_auto:
.Lfunc_begin1:
	.loc	1 546 0
	.cfi_startproc
	.loc	1 553 20 prologue_end
	ldp	w9, w8, [x3, #92]
.Ltmp270:
	.loc	1 553 26 is_stmt 0
	add	w10, w8, #7
	cmp	w8, #0
	csel	w11, w10, w8, lt
.Ltmp271:
	.loc	1 555 2 is_stmt 1
	cmp	w9, #1
	b.lt	.LBB1_8
.Ltmp272:
	.loc	1 0 2 is_stmt 0
	mov	w10, wzr
	asr	w11, w11, #3
.Ltmp273:
	mov	w12, #255
	b	.LBB1_3
.Ltmp274:
.LBB1_2:
	.loc	1 555 27
	add	w10, w10, #1
.Ltmp275:
	.loc	1 555 2
	cmp	w10, w9
	b.eq	.LBB1_8
.Ltmp276:
.LBB1_3:
	.loc	1 556 3 is_stmt 1
	cmp	w8, #8
	b.lt	.LBB1_2
.Ltmp277:
	.loc	1 0 3 is_stmt 0
	mov	w13, w11
	b	.LBB1_6
.Ltmp278:
.LBB1_5:
	add	x0, x0, #8
.Ltmp279:
	.loc	1 556 17
	subs	w13, w13, #1
.Ltmp280:
	.loc	1 556 3
	b.eq	.LBB1_2
.Ltmp281:
.LBB1_6:
	.loc	1 558 20 is_stmt 1
	ldr	x14, [x1], #8
.Ltmp282:
	.loc	1 559 21
	ldr	x15, [x0]
.Ltmp283:
	.loc	1 557 23
	ldr	x16, [x2], #8
.Ltmp284:
	.loc	1 562 8
	cmp	x14, x15
	b.eq	.LBB1_5
.Ltmp285:
	.loc	1 567 8
	tst	x16, #0xff
	csel	x17, x12, xzr, eq
.Ltmp286:
	.loc	1 571 8
	tst	x16, #0xff00
	orr	x3, x17, #0xff00
.Ltmp287:
	csel	x17, x3, x17, eq
.Ltmp288:
	.loc	1 575 8
	tst	x16, #0xff0000
	orr	x3, x17, #0xff0000
	csel	x17, x3, x17, eq
.Ltmp289:
	.loc	1 579 8
	tst	x16, #0xff000000
	orr	x3, x17, #0xff000000
	csel	x17, x3, x17, eq
.Ltmp290:
	.loc	1 583 8
	tst	x16, #0xff00000000
	orr	x3, x17, #0xff00000000
	csel	x17, x3, x17, eq
.Ltmp291:
	.loc	1 587 8
	tst	x16, #0xff0000000000
	orr	x3, x17, #0xff0000000000
	csel	x17, x3, x17, eq
.Ltmp292:
	.loc	1 591 8
	tst	x16, #0xff000000000000
	orr	x3, x17, #0xff000000000000
	.loc	1 595 8
	lsr	x16, x16, #56
.Ltmp293:
	.loc	1 591 8
	csel	x17, x3, x17, eq
.Ltmp294:
	.loc	1 595 8
	cmp	x16, #0
	orr	x3, x17, #0xff00000000000000
	csel	x16, x3, x17, eq
.Ltmp295:
	.loc	1 598 19
	bic	x15, x15, x16
.Ltmp296:
	.loc	1 599 36
	and	x14, x16, x14
.Ltmp297:
	.loc	1 599 19 is_stmt 0
	orr	x14, x15, x14
.Ltmp298:
	.loc	1 600 17 is_stmt 1
	str	x14, [x0]
	b	.LBB1_5
.Ltmp299:
.LBB1_8:
	.loc	1 603 1
	ret
.Ltmp300:
.Lfunc_end1:
	.size	refresh_new_image_auto, .Lfunc_end1-refresh_new_image_auto
	.cfi_endproc

	.section	.exit.text,"ax",@progbits
	.p2align	2
	.type	ebc_exit,@function
ebc_exit:
.Lfunc_begin2:
	.loc	1 3891 0
	.cfi_startproc
	str	x30, [x18], #8
	.cfi_escape 0x16, 0x12, 0x02, 0x82, 0x78
	stp	x29, x30, [sp, #-16]!
	mov	x29, sp
	.cfi_def_cfa w29, 16
	.cfi_offset w30, -8
	.cfi_offset w29, -16
.Ltmp301:
	.loc	1 3892 9 prologue_end
	adrp	x0, ebc_driver
	add	x0, x0, :lo12:ebc_driver
	bl	platform_driver_unregister
.Ltmp302:
	.loc	1 3892 2 is_stmt 0
	ldp	x29, x30, [sp], #16
	ldr	x30, [x18, #-8]!
	ret
.Ltmp303:
.Lfunc_end2:
	.size	ebc_exit, .Lfunc_end2-ebc_exit
	.cfi_endproc

	.section	.init.text,"ax",@progbits
	.p2align	2
	.type	ebc_init,@function
ebc_init:
.Lfunc_begin3:
	.loc	1 3886 0 is_stmt 1
	.cfi_startproc
	str	x30, [x18], #8
	.cfi_escape 0x16, 0x12, 0x02, 0x82, 0x78
	stp	x29, x30, [sp, #-16]!
	mov	x29, sp
	.cfi_def_cfa w29, 16
	.cfi_offset w30, -8
	.cfi_offset w29, -16
.Ltmp304:
	.loc	1 3887 9 prologue_end
	adrp	x0, ebc_driver
	mov	x1, xzr
	add	x0, x0, :lo12:ebc_driver
	bl	__platform_driver_register
.Ltmp305:
	.loc	1 3887 2 is_stmt 0
	ldp	x29, x30, [sp], #16
	ldr	x30, [x18, #-8]!
	ret
.Ltmp306:
.Lfunc_end3:
	.size	ebc_init, .Lfunc_end3-ebc_init
	.cfi_endproc

	.text
	.p2align	2
	.type	ebc_probe,@function
ebc_probe:
.Lfunc_begin4:
	.loc	1 3680 0 is_stmt 1
	.cfi_startproc
	sub	sp, sp, #208
	str	x30, [x18], #8
	.cfi_escape 0x16, 0x12, 0x02, 0x82, 0x78
	stp	x29, x30, [sp, #112]
	add	x29, sp, #112
	stp	x28, x27, [sp, #128]
	stp	x26, x25, [sp, #144]
	stp	x24, x23, [sp, #160]
	stp	x22, x21, [sp, #176]
	stp	x20, x19, [sp, #192]
	.cfi_def_cfa w29, 96
	.cfi_offset w19, -8
	.cfi_offset w20, -16
	.cfi_offset w21, -24
	.cfi_offset w22, -32
	.cfi_offset w23, -40
	.cfi_offset w24, -48
	.cfi_offset w25, -56
	.cfi_offset w26, -64
	.cfi_offset w27, -72
	.cfi_offset w28, -80
	.cfi_offset w30, -88
	.cfi_offset w29, -96
	mrs	x8, SP_EL0
.Ltmp307:
	.loc	1 3681 30 prologue_end
	add	x19, x0, #16
.Ltmp308:
	.loc	1 0 30 is_stmt 0
	mov	x20, x0
.Ltmp309:
	ldr	x8, [x8, #1584]
.Ltmp310:
	.loc	151 210 9 is_stmt 1
	mov	x0, x19
	mov	w1, #824
	mov	w2, #3520
	stur	x8, [x29, #-8]
.Ltmp311:
	.loc	1 3691 14
	str	xzr, [sp, #16]
.Ltmp312:
	.loc	1 3694 6
	str	wzr, [sp, #12]
.Ltmp313:
	.loc	151 210 9
	bl	devm_kmalloc
.Ltmp314:
	.loc	1 3698 6
	cbz	x0, .LBB4_6
.Ltmp315:
	.loc	1 3702 13
	adrp	x8, global_ebc
.Ltmp316:
	.loc	159 916 6
	adrp	x1, .L.str.1
.Ltmp317:
	.loc	1 0 0 is_stmt 0
	mov	x21, x0
.Ltmp318:
	.loc	1 3701 11 is_stmt 1
	str	x19, [x0]
.Ltmp319:
	.loc	159 916 6
	add	x1, x1, :lo12:.L.str.1
.Ltmp320:
	add	x5, sp, #24
.Ltmp321:
	.loc	1 3702 13
	str	x0, [x8, :lo12:global_ebc]
	.loc	1 3704 40
	ldr	x0, [x20, #760]
.Ltmp322:
	.loc	159 916 6
	mov	x2, xzr
	mov	w3, wzr
	mov	w4, wzr
.Ltmp323:
	.loc	159 914 25
	stp	xzr, xzr, [sp, #88]
	stp	xzr, xzr, [sp, #72]
	stp	xzr, xzr, [sp, #56]
	stp	xzr, xzr, [sp, #40]
	stp	xzr, xzr, [sp, #24]
.Ltmp324:
	.loc	159 916 6
	bl	__of_parse_phandle_with_args
.Ltmp325:
	.loc	1 3705 6
	cbnz	w0, .LBB4_9
.Ltmp326:
	.loc	1 0 0 is_stmt 0
	ldr	x0, [sp, #24]
	.loc	1 3705 6
	cbz	x0, .LBB4_9
.Ltmp327:
	.loc	1 3710 18 is_stmt 1
	bl	of_find_device_by_node
.Ltmp328:
	.loc	1 3712 6
	cbz	x0, .LBB4_5
.Ltmp329:
	.loc	151 773 14
	ldr	x8, [x0, #168]
.Ltmp330:
	.loc	1 3715 12
	str	x8, [x21, #8]
	.loc	1 3716 6
	cbnz	x8, .LBB4_11
.Ltmp331:
.LBB4_5:
	.loc	1 0 6 is_stmt 0
	mov	w22, #-517
	b	.LBB4_7
.Ltmp332:
.LBB4_6:
	mov	w22, #-12
.Ltmp333:
.LBB4_7:
	mrs	x8, SP_EL0
	ldr	x8, [x8, #1584]
	ldur	x9, [x29, #-8]
	cmp	x8, x9
	b.ne	.LBB4_42
.Ltmp334:
	.loc	1 3826 1 is_stmt 1
	mov	w0, w22
	ldp	x20, x19, [sp, #192]
.Ltmp335:
	ldp	x22, x21, [sp, #176]
	ldp	x24, x23, [sp, #160]
	ldp	x26, x25, [sp, #144]
	ldp	x28, x27, [sp, #128]
	ldp	x29, x30, [sp, #112]
	ldr	x30, [x18, #-8]!
	add	sp, sp, #208
	ret
.Ltmp336:
.LBB4_9:
	.loc	1 3706 3
	adrp	x1, .L.str.2
	add	x1, x1, :lo12:.L.str.2
.Ltmp337:
.LBB4_10:
	.loc	1 0 0 is_stmt 0
	mov	x0, x19
	bl	_dev_err
.Ltmp338:
	mov	w22, #-19
	b	.LBB4_7
.Ltmp339:
.LBB4_11:
	.loc	1 3718 30 is_stmt 1
	adrp	x9, frame_done_callback
	.loc	1 3720 9
	adrp	x1, .L.str.3
	.loc	1 3718 30
	add	x9, x9, :lo12:frame_done_callback
	.loc	1 3720 9
	add	x1, x1, :lo12:.L.str.3
	add	x2, sp, #12
	.loc	1 3718 30
	str	x9, [x8, #120]
	.loc	1 3720 30
	ldr	x0, [x20, #760]
.Ltmp340:
	.loc	1 3720 9 is_stmt 0
	bl	of_get_property
.Ltmp341:
	.loc	1 3721 7 is_stmt 1
	ldr	w8, [sp, #12]
.Ltmp342:
	asr	w9, w8, #2
.Ltmp343:
	.loc	1 3722 6
	cmp	w8, #3
	.loc	1 3721 7
	str	w9, [sp, #12]
	.loc	1 3722 6
	b.hi	.LBB4_13
.Ltmp344:
	.loc	1 3723 3
	adrp	x1, .L.str.4
	mov	x0, x19
.Ltmp345:
	add	x1, x1, :lo12:.L.str.4
	bl	_dev_err
.Ltmp346:
	.loc	1 0 3 is_stmt 0
	mov	w22, #-22
	b	.LBB4_7
.Ltmp347:
.LBB4_13:
	.loc	1 3727 2 is_stmt 1
	cmp	w8, #4
.Ltmp348:
	b.lt	.LBB4_36
.Ltmp349:
	.loc	1 0 2 is_stmt 0
	adrp	x24, .L.str.8
	adrp	x26, .L.str.10
	adrp	x27, .L.str.12
	mov	x22, x0
.Ltmp350:
	mov	w23, wzr
	mov	w25, wzr
	add	x24, x24, :lo12:.L.str.8
	add	x26, x26, :lo12:.L.str.10
	add	x27, x27, :lo12:.L.str.12
	b	.LBB4_16
.Ltmp351:
.LBB4_15:
	.loc	1 3727 18
	ldr	w8, [sp, #12]
	add	w23, w23, #1
.Ltmp352:
	.loc	1 0 18
	mov	w25, #1
.Ltmp353:
	.loc	1 3727 2
	cmp	w23, w8
	b.ge	.LBB4_31
.Ltmp354:
.LBB4_16:
	add	x22, x22, #4
.Ltmp355:
.LBB4_17:
	.file	185 "/home/lyx/rk-android14/kernel-6.1" "./include/uapi/linux/swab.h"
	.loc	185 189 9 is_stmt 1
	ldur	w8, [x22, #-4]
	rev	w0, w8
.Ltmp356:
	.loc	1 3729 15
	bl	of_find_node_by_phandle
.Ltmp357:
	.loc	1 3730 7
	cbz	x0, .LBB4_27
.Ltmp358:
	.loc	1 3735 17
	bl	of_find_i2c_device_by_node
.Ltmp359:
	.loc	1 3737 7
	cbz	x0, .LBB4_28
.Ltmp360:
	.loc	151 773 14
	ldr	x8, [x0, #184]
.Ltmp361:
	.loc	1 3742 13
	str	x8, [x21, #16]
	.loc	1 3743 7
	cbnz	x8, .LBB4_29
.Ltmp362:
	.loc	1 3750 48
	add	x28, x0, #32
	.loc	1 3750 15 is_stmt 0
	mov	x1, x24
	mov	x0, x28
.Ltmp363:
	bl	devm_regulator_get
.Ltmp364:
	.loc	1 3751 7 is_stmt 1
	cmn	x0, #4095
	.loc	1 3750 13
	str	x0, [x21, #24]
	.loc	1 3751 7
	b.hs	.LBB4_25
.Ltmp365:
	.loc	1 3756 9
	add	x2, sp, #16
	mov	x0, x28
	mov	x1, x26
	bl	device_property_read_string
.Ltmp366:
	.loc	1 3757 7
	cbnz	w0, .LBB4_26
.Ltmp367:
	.loc	1 3760 44
	ldr	x0, [sp, #16]
.Ltmp368:
	.loc	1 3760 14 is_stmt 0
	bl	thermal_zone_get_zone_by_name
.Ltmp369:
	.loc	1 3761 8 is_stmt 1
	cmn	x0, #4095
	.loc	1 3760 12
	str	x0, [x21, #32]
	.loc	1 3761 8
	b.lo	.LBB4_15
.Ltmp370:
	.loc	1 3762 5
	mov	x0, x19
	mov	x1, x27
	bl	_dev_err
.Ltmp371:
.LBB4_24:
	.loc	1 3727 18
	ldr	w8, [sp, #12]
.Ltmp372:
	.loc	1 3727 25 is_stmt 0
	add	w23, w23, #1
.Ltmp373:
	.loc	1 3727 16
	add	x22, x22, #4
.Ltmp374:
	.loc	1 3727 2
	cmp	w23, w8
	b.lt	.LBB4_17
	b	.LBB4_30
.Ltmp375:
.LBB4_25:
	.loc	1 3752 4 is_stmt 1
	adrp	x1, .L.str.9
	mov	x0, x19
	add	x1, x1, :lo12:.L.str.9
	bl	_dev_warn
.Ltmp376:
	.loc	1 0 4 is_stmt 0
	b	.LBB4_24
.Ltmp377:
.LBB4_26:
	.loc	1 3758 4 is_stmt 1
	adrp	x1, .L.str.11
	mov	x0, x19
.Ltmp378:
	add	x1, x1, :lo12:.L.str.11
	bl	_dev_warn
.Ltmp379:
	.loc	1 0 4 is_stmt 0
	b	.LBB4_24
.Ltmp380:
.LBB4_27:
	.loc	1 3731 4 is_stmt 1
	adrp	x1, .L.str.5
	add	x1, x1, :lo12:.L.str.5
	b	.LBB4_10
.Ltmp381:
.LBB4_28:
	.loc	1 3738 4
	adrp	x1, .L.str.6
	add	x1, x1, :lo12:.L.str.6
	b	.LBB4_10
.Ltmp382:
.LBB4_29:
	.loc	1 3745 4
	adrp	x1, .L.str.7
	mov	x0, x19
.Ltmp383:
	add	x1, x1, :lo12:.L.str.7
	mov	w2, w23
	bl	_dev_info
.Ltmp384:
	.loc	1 0 4 is_stmt 0
	b	.LBB4_31
.Ltmp385:
.LBB4_30:
	tbz	w25, #0, .LBB4_36
.Ltmp386:
.LBB4_31:
	.loc	1 3776 13 is_stmt 1
	mov	x23, x21
	str	x19, [x23, #40]!
.Ltmp387:
	.loc	1 3777 21
	ldp	x8, x9, [x23, #-32]
	.loc	1 3781 8
	mov	x0, x23
	.loc	1 3774 16
	str	x19, [x23, #272]
	.loc	1 3777 14
	stp	x8, x9, [x23, #8]
	.loc	1 3781 8
	bl	ebc_panel_probe
.Ltmp388:
	.loc	1 3782 6
	cbnz	w0, .LBB4_37
.Ltmp389:
	.loc	1 3786 28
	ldp	w9, w8, [x21, #124]
	.loc	1 3792 8
	mov	x0, x21
.Ltmp390:
	.loc	1 3788 49
	mul	w10, w9, w8
	.loc	1 3786 19
	str	w8, [x21, #300]
	.loc	1 3787 18
	str	w9, [x21, #304]
	.loc	1 3789 72
	lsr	w8, w10, #2
	.loc	1 3788 30
	stp	w10, w8, [x21, #236]
	.loc	1 3792 8
	bl	ebc_buffer_manage_init
.Ltmp391:
	.loc	1 3793 6
	cbnz	w0, .LBB4_38
.Ltmp392:
	.loc	1 0 0 is_stmt 0
	add	x24, x23, #168
.Ltmp393:
	.loc	1 3799 8 is_stmt 1
	mov	x0, x24
.Ltmp394:
	bl	ebc_lut_table_init
.Ltmp395:
	.loc	1 3800 6
	cbnz	w0, .LBB4_39
.Ltmp396:
	.loc	1 3806 8
	mov	x0, x24
.Ltmp397:
	bl	ebc_task_init
.Ltmp398:
	mov	w22, w0
.Ltmp399:
	.loc	1 3807 6
	cbnz	w0, .LBB4_40
.Ltmp400:
	.loc	1 3813 2
	mov	x0, x24
	bl	ebc_other_init
.Ltmp401:
	.loc	1 3816 2
	mov	x0, x21
	mov	x1, x23
	bl	ebc_logo_init
.Ltmp402:
	.loc	1 3821 2
	mov	x0, x24
.Ltmp403:
	.loc	151 778 19
	str	x21, [x20, #168]
.Ltmp404:
	.loc	1 3821 2
	bl	ebc_sysfs_init
.Ltmp405:
	.loc	1 3823 2
	adrp	x1, .L.str.18
	adrp	x2, .L.str.19
	ldr	x0, [x21, #312]
	add	x1, x1, :lo12:.L.str.18
	add	x2, x2, :lo12:.L.str.19
	bl	_dev_info
.Ltmp406:
	.loc	1 0 2 is_stmt 0
	b	.LBB4_7
.Ltmp407:
.LBB4_36:
	.loc	1 3769 3 is_stmt 1
	adrp	x1, .L.str.13
	mov	x0, x19
	add	x1, x1, :lo12:.L.str.13
	bl	_dev_err
.Ltmp408:
	.loc	1 0 3 is_stmt 0
	b	.LBB4_5
.Ltmp409:
.LBB4_37:
	mov	w22, w0
.Ltmp410:
	.loc	1 3783 3 is_stmt 1
	adrp	x1, .L.str.14
	add	x1, x1, :lo12:.L.str.14
	mov	x0, x19
	mov	w2, w22
	bl	_dev_err
.Ltmp411:
	.loc	1 0 3 is_stmt 0
	b	.LBB4_7
.Ltmp412:
.LBB4_38:
	.loc	1 3794 3 is_stmt 1
	adrp	x1, .L.str.15
.Ltmp413:
	.loc	1 0 0 is_stmt 0
	mov	w22, w0
.Ltmp414:
	.loc	1 3794 3
	add	x1, x1, :lo12:.L.str.15
	b	.LBB4_41
.Ltmp415:
.LBB4_39:
	.loc	1 3801 3 is_stmt 1
	adrp	x1, .L.str.16
.Ltmp416:
	.loc	1 0 0 is_stmt 0
	mov	w22, w0
.Ltmp417:
	.loc	1 3801 3
	add	x1, x1, :lo12:.L.str.16
	b	.LBB4_41
.Ltmp418:
.LBB4_40:
	.loc	1 3808 3 is_stmt 1
	adrp	x1, .L.str.17
	add	x1, x1, :lo12:.L.str.17
.Ltmp419:
.LBB4_41:
	.loc	1 0 0 is_stmt 0
	mov	x0, x19
	bl	_dev_err
.Ltmp420:
	b	.LBB4_7
.Ltmp421:
.LBB4_42:
	bl	__stack_chk_fail
.Ltmp422:
.Lfunc_end4:
	.size	ebc_probe, .Lfunc_end4-ebc_probe
	.cfi_endproc
	.file	186 "/home/lyx/rk-android14/kernel-6.1" "./include/uapi/linux/byteorder/little_endian.h"
	.file	187 "/home/lyx/rk-android14/kernel-6.1" "./include/linux/i2c.h"
	.file	188 "/home/lyx/rk-android14/kernel-6.1" "./include/uapi/linux/i2c.h"
	.file	189 "/home/lyx/rk-android14/kernel-6.1" "./include/linux/rtmutex.h"
	.file	190 "/home/lyx/rk-android14/kernel-6.1" "./include/linux/of_platform.h"
	.file	191 "/home/lyx/rk-android14/kernel-6.1" "./include/linux/regulator/consumer.h"

	.p2align	2
	.type	ebc_remove,@function
ebc_remove:
.Lfunc_begin5:
	.loc	1 3829 0 is_stmt 1
	.cfi_startproc
	str	x30, [x18], #8
	.cfi_escape 0x16, 0x12, 0x02, 0x82, 0x78
	stp	x29, x30, [sp, #-16]!
	mov	x29, sp
	.cfi_def_cfa w29, 16
	.cfi_offset w30, -8
	.cfi_offset w29, -16
.Ltmp423:
	.loc	1 3830 2 prologue_end
	adrp	x0, ebc_misc
.Ltmp424:
	add	x0, x0, :lo12:ebc_misc
	bl	misc_deregister
.Ltmp425:
	.loc	1 3832 2
	mov	w0, wzr
	ldp	x29, x30, [sp], #16
	ldr	x30, [x18, #-8]!
	ret
.Ltmp426:
.Lfunc_end5:
	.size	ebc_remove, .Lfunc_end5-ebc_remove
	.cfi_endproc

	.p2align	2
	.type	frame_done_callback,@function
frame_done_callback:
.Lfunc_begin6:
	.loc	1 2080 0
	.cfi_startproc
	str	x30, [x18], #8
	.cfi_escape 0x16, 0x12, 0x02, 0x82, 0x78
	stp	x29, x30, [sp, #-32]!
	str	x19, [sp, #16]
	mov	x29, sp
	.cfi_def_cfa w29, 32
	.cfi_offset w19, -16
	.cfi_offset w30, -24
	.cfi_offset w29, -32
.Ltmp427:
	.loc	1 2081 31 prologue_end
	adrp	x8, global_ebc
	ldr	x19, [x8, :lo12:global_ebc]
.Ltmp428:
	.loc	1 2083 20
	ldr	w8, [x19, #460]
	.loc	1 2083 2 is_stmt 0
	cmp	w8, #3
	b.eq	.LBB6_6
.Ltmp429:
	cmp	w8, #4
	b.ne	.LBB6_10
.Ltmp430:
	.loc	1 0 2
	mov	w8, #1
.Ltmp431:
	.loc	1 2086 17 is_stmt 1
	ldr	w9, [x19, #268]
.Ltmp432:
	.loc	1 2085 24
	str	w8, [x19, #284]
.Ltmp433:
	.loc	1 2086 36
	cbnz	w9, .LBB6_9
.Ltmp434:
	.loc	1 2086 49 is_stmt 0
	ldr	w8, [x19, #272]
.Ltmp435:
	.loc	1 2086 7
	cbnz	w8, .LBB6_9
.Ltmp436:
	.loc	1 2088 24 is_stmt 1
	ldr	w8, [x19, #276]
.Ltmp437:
	.loc	1 2088 14 is_stmt 0
	cbz	w8, .LBB6_9
.Ltmp438:
	.loc	1 2092 4 is_stmt 1
	adrp	x1, .L.str.20
	ldr	x0, [x19, #312]
	add	x1, x1, :lo12:.L.str.20
	b	.LBB6_16
.Ltmp439:
.LBB6_6:
	.loc	1 2101 17
	ldr	w8, [x19, #268]
	.loc	1 2101 36 is_stmt 0
	cbnz	w8, .LBB6_9
.Ltmp440:
	.loc	1 2101 49
	ldr	w8, [x19, #272]
.Ltmp441:
	.loc	1 2101 7
	cbnz	w8, .LBB6_9
.Ltmp442:
	.loc	1 2103 24 is_stmt 1
	ldr	w8, [x19, #276]
.Ltmp443:
	.loc	1 2103 14 is_stmt 0
	cbnz	w8, .LBB6_15
.Ltmp444:
.LBB6_9:
	.loc	1 0 0
	adrp	x8, ebc_auto_task
	ldr	x0, [x8, :lo12:ebc_auto_task]
	b	.LBB6_12
.Ltmp445:
.LBB6_10:
	.loc	1 2116 17 is_stmt 1
	ldr	w8, [x19, #280]
.Ltmp446:
	.loc	1 2116 7 is_stmt 0
	cbz	w8, .LBB6_14
.Ltmp447:
	.loc	1 2118 20 is_stmt 1
	adrp	x8, ebc_auto_task
	mov	w9, #1
	ldr	x0, [x8, :lo12:ebc_auto_task]
	.loc	1 2117 26
	str	w9, [x19, #260]
.Ltmp448:
.LBB6_12:
	.loc	1 0 0 is_stmt 0
	bl	wake_up_process
.Ltmp449:
.LBB6_13:
	.loc	1 2126 1 is_stmt 1
	ldr	x19, [sp, #16]
.Ltmp450:
	ldp	x29, x30, [sp], #32
	ldr	x30, [x18, #-8]!
	ret
.LBB6_14:
.Ltmp451:
	.loc	1 2121 4
	adrp	x1, .L.str.22
	ldr	x0, [x19, #312]
	add	x1, x1, :lo12:.L.str.22
.Ltmp452:
	.loc	1 2120 26
	str	wzr, [x19, #260]
.Ltmp453:
	.loc	1 2121 4
	bl	_dev_info
.Ltmp454:
	.loc	1 0 4 is_stmt 0
	b	.LBB6_17
.Ltmp455:
.LBB6_15:
	.loc	1 2107 4 is_stmt 1
	ldr	x0, [x19, #312]
	adrp	x1, .L.str.21
	add	x1, x1, :lo12:.L.str.21
.Ltmp456:
.LBB6_16:
	.loc	1 0 0 is_stmt 0
	bl	_dev_info
.Ltmp457:
	ldr	w8, [x19, #304]
	mov	w1, wzr
	ldr	w9, [x19, #300]
	ldr	x0, [x19, #376]
	mul	w8, w9, w8
	sxtw	x2, w8
	bl	memset
.Ltmp458:
	adrp	x8, jiffies
	mov	w9, #335544320
	add	x0, x19, #736
	ldr	x8, [x8, :lo12:jiffies]
	add	x1, x8, x9
	bl	mod_timer
.Ltmp459:
	str	wzr, [x19, #260]
.Ltmp460:
.LBB6_17:
	adrp	x0, ebc_thread_wq
	mov	w1, #1
	add	x0, x0, :lo12:ebc_thread_wq
	bl	__wake_up_sync
.Ltmp461:
	b	.LBB6_13
.Ltmp462:
.Lfunc_end6:
	.size	frame_done_callback, .Lfunc_end6-frame_done_callback
	.cfi_endproc

	.p2align	2
	.type	ebc_panel_probe,@function
ebc_panel_probe:
.Lfunc_begin7:
	.loc	1 2892 0 is_stmt 1
	.cfi_startproc
	str	x30, [x18], #8
	.cfi_escape 0x16, 0x12, 0x02, 0x82, 0x78
	stp	x29, x30, [sp, #-48]!
	str	x21, [sp, #16]
	mov	x29, sp
	stp	x20, x19, [sp, #32]
	.cfi_def_cfa w29, 48
	.cfi_offset w19, -8
	.cfi_offset w20, -16
	.cfi_offset w21, -32
	.cfi_offset w30, -40
	.cfi_offset w29, -48
.Ltmp463:
	.loc	1 2893 30 prologue_end
	mov	x2, x0
.Ltmp464:
	.loc	159 1256 12
	adrp	x1, .L.str.23
	mov	x19, x0
.Ltmp465:
	add	x1, x1, :lo12:.L.str.23
.Ltmp466:
	mov	w3, #1
	mov	x4, xzr
.Ltmp467:
	.loc	1 2893 30
	ldr	x20, [x2], #76
.Ltmp468:
	.loc	1 2895 32
	ldr	x0, [x20, #744]
.Ltmp469:
	.loc	159 1256 12
	bl	of_property_read_variable_u32_array
.Ltmp470:
	.loc	1 2895 6
	tbnz	w0, #31, .LBB7_29
.Ltmp471:
	.loc	1 0 0 is_stmt 0
	add	x21, x20, #744
.Ltmp472:
	.loc	159 1256 12 is_stmt 1
	adrp	x1, .L.str.24
.Ltmp473:
	.loc	1 2898 65
	add	x2, x19, #80
.Ltmp474:
	.loc	159 1256 12
	add	x1, x1, :lo12:.L.str.24
.Ltmp475:
	mov	w3, #1
	mov	x4, xzr
.Ltmp476:
	.loc	1 2898 32
	ldr	x0, [x21]
.Ltmp477:
	.loc	159 1256 12
	bl	of_property_read_variable_u32_array
.Ltmp478:
	.loc	1 2898 6
	tbnz	w0, #31, .LBB7_29
.Ltmp479:
	.loc	159 1256 12
	adrp	x1, .L.str.25
.Ltmp480:
	.loc	1 2901 32
	ldr	x0, [x21]
	.loc	1 2901 68 is_stmt 0
	add	x2, x19, #84
.Ltmp481:
	.loc	159 1256 12 is_stmt 1
	add	x1, x1, :lo12:.L.str.25
.Ltmp482:
	mov	w3, #1
	mov	x4, xzr
	bl	of_property_read_variable_u32_array
.Ltmp483:
	.loc	1 2901 6
	tbnz	w0, #31, .LBB7_29
.Ltmp484:
	.loc	159 1256 12
	adrp	x1, .L.str.26
.Ltmp485:
	.loc	1 2904 32
	ldr	x0, [x21]
	.loc	1 2904 69 is_stmt 0
	add	x2, x19, #88
.Ltmp486:
	.loc	159 1256 12 is_stmt 1
	add	x1, x1, :lo12:.L.str.26
.Ltmp487:
	mov	w3, #1
	mov	x4, xzr
	bl	of_property_read_variable_u32_array
.Ltmp488:
	.loc	1 2904 6
	tbnz	w0, #31, .LBB7_29
.Ltmp489:
	.loc	159 1256 12
	adrp	x1, .L.str.27
.Ltmp490:
	.loc	1 2907 32
	ldr	x0, [x21]
	.loc	1 2907 63 is_stmt 0
	add	x2, x19, #104
.Ltmp491:
	.loc	159 1256 12 is_stmt 1
	add	x1, x1, :lo12:.L.str.27
.Ltmp492:
	mov	w3, #1
	mov	x4, xzr
	bl	of_property_read_variable_u32_array
.Ltmp493:
	.loc	1 2907 6
	tbnz	w0, #31, .LBB7_29
.Ltmp494:
	.loc	159 1256 12
	adrp	x1, .L.str.28
.Ltmp495:
	.loc	1 2910 32
	ldr	x0, [x21]
	.loc	1 2910 62 is_stmt 0
	add	x2, x19, #108
.Ltmp496:
	.loc	159 1256 12 is_stmt 1
	add	x1, x1, :lo12:.L.str.28
.Ltmp497:
	mov	w3, #1
	mov	x4, xzr
	bl	of_property_read_variable_u32_array
.Ltmp498:
	.loc	1 2910 6
	tbnz	w0, #31, .LBB7_29
.Ltmp499:
	.loc	159 1256 12
	adrp	x1, .L.str.29
.Ltmp500:
	.loc	1 2913 32
	ldr	x0, [x21]
	.loc	1 2913 62 is_stmt 0
	add	x2, x19, #112
.Ltmp501:
	.loc	159 1256 12 is_stmt 1
	add	x1, x1, :lo12:.L.str.29
.Ltmp502:
	mov	w3, #1
	mov	x4, xzr
	bl	of_property_read_variable_u32_array
.Ltmp503:
	.loc	1 2913 6
	tbnz	w0, #31, .LBB7_29
.Ltmp504:
	.loc	159 1256 12
	adrp	x1, .L.str.30
.Ltmp505:
	.loc	1 2916 32
	ldr	x0, [x21]
	.loc	1 2916 62 is_stmt 0
	add	x2, x19, #116
.Ltmp506:
	.loc	159 1256 12 is_stmt 1
	add	x1, x1, :lo12:.L.str.30
.Ltmp507:
	mov	w3, #1
	mov	x4, xzr
	bl	of_property_read_variable_u32_array
.Ltmp508:
	.loc	1 2916 6
	tbnz	w0, #31, .LBB7_29
.Ltmp509:
	.loc	159 1256 12
	adrp	x1, .L.str.31
.Ltmp510:
	.loc	1 2919 32
	ldr	x0, [x21]
	.loc	1 2919 62 is_stmt 0
	add	x2, x19, #120
.Ltmp511:
	.loc	159 1256 12 is_stmt 1
	add	x1, x1, :lo12:.L.str.31
.Ltmp512:
	mov	w3, #1
	mov	x4, xzr
	bl	of_property_read_variable_u32_array
.Ltmp513:
	.loc	1 2919 6
	tbnz	w0, #31, .LBB7_29
.Ltmp514:
	.loc	159 1256 12
	adrp	x1, .L.str.32
.Ltmp515:
	.loc	1 2922 32
	ldr	x0, [x21]
	.loc	1 2922 67 is_stmt 0
	add	x2, x19, #124
.Ltmp516:
	.loc	159 1256 12 is_stmt 1
	add	x1, x1, :lo12:.L.str.32
.Ltmp517:
	mov	w3, #1
	mov	x4, xzr
	bl	of_property_read_variable_u32_array
.Ltmp518:
	.loc	1 2922 6
	tbnz	w0, #31, .LBB7_29
.Ltmp519:
	.loc	159 1256 12
	adrp	x1, .L.str.33
.Ltmp520:
	.loc	1 2925 32
	ldr	x0, [x21]
	.loc	1 2925 64 is_stmt 0
	add	x2, x19, #128
.Ltmp521:
	.loc	159 1256 12 is_stmt 1
	add	x1, x1, :lo12:.L.str.33
.Ltmp522:
	mov	w3, #1
	mov	x4, xzr
	bl	of_property_read_variable_u32_array
.Ltmp523:
	.loc	1 2925 6
	tbnz	w0, #31, .LBB7_29
.Ltmp524:
	.loc	159 1256 12
	adrp	x1, .L.str.34
.Ltmp525:
	.loc	1 2928 32
	ldr	x0, [x21]
	.loc	1 2928 62 is_stmt 0
	add	x2, x19, #132
.Ltmp526:
	.loc	159 1256 12 is_stmt 1
	add	x1, x1, :lo12:.L.str.34
.Ltmp527:
	mov	w3, #1
	mov	x4, xzr
	bl	of_property_read_variable_u32_array
.Ltmp528:
	.loc	1 2928 6
	tbnz	w0, #31, .LBB7_29
.Ltmp529:
	.loc	159 1256 12
	adrp	x1, .L.str.35
.Ltmp530:
	.loc	1 2931 32
	ldr	x0, [x21]
	.loc	1 2931 62 is_stmt 0
	add	x2, x19, #136
.Ltmp531:
	.loc	159 1256 12 is_stmt 1
	add	x1, x1, :lo12:.L.str.35
.Ltmp532:
	mov	w3, #1
	mov	x4, xzr
	bl	of_property_read_variable_u32_array
.Ltmp533:
	.loc	1 2931 6
	tbnz	w0, #31, .LBB7_29
.Ltmp534:
	.loc	159 1256 12
	adrp	x1, .L.str.36
.Ltmp535:
	.loc	1 2934 32
	ldr	x0, [x21]
	.loc	1 2934 62 is_stmt 0
	add	x2, x19, #140
.Ltmp536:
	.loc	159 1256 12 is_stmt 1
	add	x1, x1, :lo12:.L.str.36
.Ltmp537:
	mov	w3, #1
	mov	x4, xzr
	bl	of_property_read_variable_u32_array
.Ltmp538:
	.loc	1 2934 6
	tbnz	w0, #31, .LBB7_29
.Ltmp539:
	.loc	159 1256 12
	adrp	x1, .L.str.37
.Ltmp540:
	.loc	1 2937 32
	ldr	x0, [x21]
	.loc	1 2937 62 is_stmt 0
	add	x2, x19, #144
.Ltmp541:
	.loc	159 1256 12 is_stmt 1
	add	x1, x1, :lo12:.L.str.37
.Ltmp542:
	mov	w3, #1
	mov	x4, xzr
	bl	of_property_read_variable_u32_array
.Ltmp543:
	.loc	1 2937 6
	tbnz	w0, #31, .LBB7_29
.Ltmp544:
	.loc	1 2940 70
	add	x20, x19, #148
.Ltmp545:
	.loc	159 1256 12
	adrp	x1, .L.str.38
.Ltmp546:
	.loc	1 2940 32
	ldr	x0, [x21]
.Ltmp547:
	.loc	159 1256 12
	add	x1, x1, :lo12:.L.str.38
.Ltmp548:
	mov	x2, x20
	mov	w3, #1
	mov	x4, xzr
	bl	of_property_read_variable_u32_array
.Ltmp549:
	.loc	1 2940 6
	tbz	w0, #31, .LBB7_17
.Ltmp550:
	.loc	1 2941 22
	str	wzr, [x20]
.Ltmp551:
.LBB7_17:
	.loc	1 2943 70
	add	x20, x19, #152
.Ltmp552:
	.loc	159 1256 12
	adrp	x1, .L.str.39
.Ltmp553:
	.loc	1 2943 32
	ldr	x0, [x21]
.Ltmp554:
	.loc	159 1256 12
	add	x1, x1, :lo12:.L.str.39
.Ltmp555:
	mov	x2, x20
	mov	w3, #1
	mov	x4, xzr
	bl	of_property_read_variable_u32_array
.Ltmp556:
	.loc	1 2943 6
	tbz	w0, #31, .LBB7_19
.Ltmp557:
	.loc	1 2944 22
	str	wzr, [x20]
.Ltmp558:
.LBB7_19:
	.loc	1 2946 65
	add	x20, x19, #156
.Ltmp559:
	.loc	159 1256 12
	adrp	x1, .L.str.40
.Ltmp560:
	.loc	1 2946 32
	ldr	x0, [x21]
.Ltmp561:
	.loc	159 1256 12
	add	x1, x1, :lo12:.L.str.40
.Ltmp562:
	mov	x2, x20
	mov	w3, #1
	mov	x4, xzr
	bl	of_property_read_variable_u32_array
.Ltmp563:
	.loc	1 2946 6
	tbz	w0, #31, .LBB7_21
.Ltmp564:
	.loc	1 2947 17
	str	wzr, [x20]
.Ltmp565:
.LBB7_21:
	.loc	1 2949 67
	add	x20, x19, #92
.Ltmp566:
	.loc	159 1256 12
	adrp	x1, .L.str.41
.Ltmp567:
	.loc	1 2949 32
	ldr	x0, [x21]
.Ltmp568:
	.loc	159 1256 12
	add	x1, x1, :lo12:.L.str.41
.Ltmp569:
	mov	x2, x20
	mov	w3, #1
	mov	x4, xzr
	bl	of_property_read_variable_u32_array
.Ltmp570:
	.loc	1 2949 6
	tbz	w0, #31, .LBB7_23
.Ltmp571:
	.loc	1 2950 19
	str	wzr, [x20]
.Ltmp572:
.LBB7_23:
	.loc	1 2952 68
	add	x20, x19, #96
.Ltmp573:
	.loc	159 1256 12
	adrp	x1, .L.str.42
.Ltmp574:
	.loc	1 2952 32
	ldr	x0, [x21]
.Ltmp575:
	.loc	159 1256 12
	add	x1, x1, :lo12:.L.str.42
.Ltmp576:
	mov	x2, x20
	mov	w3, #1
	mov	x4, xzr
	bl	of_property_read_variable_u32_array
.Ltmp577:
	.loc	1 2952 6
	tbz	w0, #31, .LBB7_25
.Ltmp578:
	.loc	1 2953 20
	str	wzr, [x20]
.Ltmp579:
.LBB7_25:
	.loc	1 2955 71
	add	x20, x19, #160
.Ltmp580:
	.loc	159 1256 12
	adrp	x1, .L.str.43
.Ltmp581:
	.loc	1 2955 32
	ldr	x0, [x21]
.Ltmp582:
	.loc	159 1256 12
	add	x1, x1, :lo12:.L.str.43
.Ltmp583:
	mov	x2, x20
	mov	w3, #1
	mov	x4, xzr
	bl	of_property_read_variable_u32_array
.Ltmp584:
	.loc	1 2955 6
	tbz	w0, #31, .LBB7_27
.Ltmp585:
	.loc	1 2956 23
	str	wzr, [x20]
.Ltmp586:
.LBB7_27:
	.loc	1 2958 68
	add	x19, x19, #164
.Ltmp587:
	.loc	159 1256 12
	adrp	x1, .L.str.44
.Ltmp588:
	.loc	1 2958 32
	ldr	x0, [x21]
.Ltmp589:
	.loc	159 1256 12
	add	x1, x1, :lo12:.L.str.44
.Ltmp590:
	mov	x2, x19
	mov	w3, #1
	mov	x4, xzr
	bl	of_property_read_variable_u32_array
.Ltmp591:
	.loc	1 2958 6
	tbnz	w0, #31, .LBB7_31
.Ltmp592:
	.loc	1 0 6 is_stmt 0
	mov	w0, wzr
	b	.LBB7_30
.Ltmp593:
.LBB7_29:
	mov	w0, #-22
.Ltmp594:
.LBB7_30:
	.loc	1 2962 1 is_stmt 1
	ldp	x20, x19, [sp, #32]
	ldr	x21, [sp, #16]
	ldp	x29, x30, [sp], #48
	ldr	x30, [x18, #-8]!
	ret
.LBB7_31:
.Ltmp595:
	.loc	1 0 1 is_stmt 0
	mov	w0, wzr
.Ltmp596:
	.loc	1 2959 20 is_stmt 1
	str	wzr, [x19]
	b	.LBB7_30
.Ltmp597:
.Lfunc_end7:
	.size	ebc_panel_probe, .Lfunc_end7-ebc_panel_probe
	.cfi_endproc

	.p2align	2
	.type	ebc_buffer_manage_init,@function
ebc_buffer_manage_init:
.Lfunc_begin8:
	.loc	1 3434 0
	.cfi_startproc
	sub	sp, sp, #240
	str	x30, [x18], #8
	.cfi_escape 0x16, 0x12, 0x02, 0x82, 0x78
	stp	x29, x30, [sp, #192]
	add	x29, sp, #192
	str	x21, [sp, #208]
	stp	x20, x19, [sp, #224]
	.cfi_def_cfa w29, 48
	.cfi_offset w19, -8
	.cfi_offset w20, -16
	.cfi_offset w21, -32
	.cfi_offset w30, -40
	.cfi_offset w29, -48
	mrs	x8, SP_EL0
	ldr	x8, [x8, #1584]
	stur	x8, [x29, #-8]
.Ltmp598:
	.loc	1 3444 16 prologue_end
	ldr	w8, [x0, #236]
.Ltmp599:
	.loc	1 3439 18
	stp	xzr, xzr, [sp, #88]
	.loc	1 3435 28
	ldr	x20, [x0]
.Ltmp600:
	.loc	1 3439 18
	stp	xzr, xzr, [sp, #72]
	stp	xzr, xzr, [sp, #56]
	.loc	1 3444 6
	cmp	w8, #1280, lsl #12
	.loc	1 3439 18
	stp	xzr, xzr, [sp, #40]
	stp	xzr, xzr, [sp, #24]
	stp	xzr, xzr, [sp, #8]
.Ltmp601:
	.loc	1 3444 6
	b.gt	.LBB8_9
.Ltmp602:
	.loc	159 916 6
	adrp	x1, .L.str.46
	mov	x19, x0
.Ltmp603:
	.loc	1 3450 33
	ldr	x0, [x20, #744]
.Ltmp604:
	.loc	159 916 6
	add	x1, x1, :lo12:.L.str.46
.Ltmp605:
	sub	x5, x29, #88
	mov	x2, xzr
	mov	w3, wzr
	mov	w4, wzr
.Ltmp606:
	.loc	159 914 25
	stp	xzr, xzr, [x29, #-24]
	stp	xzr, xzr, [x29, #-40]
	stp	xzr, xzr, [x29, #-56]
	stp	xzr, xzr, [x29, #-72]
	stp	xzr, xzr, [x29, #-88]
.Ltmp607:
	.loc	159 916 6
	bl	__of_parse_phandle_with_args
.Ltmp608:
	.loc	159 0 6 is_stmt 0
	mov	w21, #-19
.Ltmp609:
	.loc	1 3451 6 is_stmt 1
	cbnz	w0, .LBB8_12
.Ltmp610:
	.loc	1 0 0 is_stmt 0
	ldur	x0, [x29, #-88]
	.loc	1 3451 6
	cbz	x0, .LBB8_12
.Ltmp611:
	.loc	1 3454 8 is_stmt 1
	add	x2, sp, #8
	mov	w1, wzr
	bl	of_address_to_resource
.Ltmp612:
	.loc	1 3456 6
	cbnz	w0, .LBB8_10
.Ltmp613:
	.loc	1 3461 31
	ldp	x1, x8, [sp, #8]
	mov	w9, #53477375
	.loc	1 3461 27 is_stmt 0
	str	x1, [x19, #208]
.Ltmp614:
	.loc	169 227 31 is_stmt 1
	sub	x8, x8, x1
	add	x8, x8, #1
.Ltmp615:
	.loc	1 3463 6
	cmp	w8, w9
	.loc	1 3462 28
	str	w8, [x19, #232]
	.loc	1 3463 6
	b.le	.LBB8_11
.Ltmp616:
	.loc	1 3467 74
	sxtw	x2, w8
	.loc	1 3467 29 is_stmt 0
	mov	x0, x20
.Ltmp617:
	mov	w3, #1
	bl	devm_memremap
.Ltmp618:
	.loc	1 3467 27
	str	x0, [x19, #216]
	.loc	1 3469 6 is_stmt 1
	cbz	x0, .LBB8_14
.Ltmp619:
	.loc	1 0 0 is_stmt 0
	mov	x1, x0
	.loc	1 3478 31 is_stmt 1
	ldr	x0, [x19, #208]
	.loc	1 3478 83 is_stmt 0
	ldr	w2, [x19, #232]
	.loc	1 3478 8
	mov	w3, #5242880
	mov	w4, #4
	bl	ebc_buf_init
.Ltmp620:
	.loc	1 3479 6 is_stmt 1
	cbz	w0, .LBB8_8
.Ltmp621:
.LBB8_7:
	.loc	1 0 6 is_stmt 0
	mov	w21, #-12
	b	.LBB8_12
.Ltmp622:
.LBB8_8:
	.loc	1 3482 36 is_stmt 1
	ldp	x10, x8, [x19, #208]
	mov	w11, #26214400
	mov	w14, #28311552
.Ltmp623:
	.loc	1 0 36 is_stmt 0
	mov	w13, #2097152
	mov	w9, #20971520
	.loc	1 3504 2 is_stmt 1
	mov	w1, wzr
.Ltmp624:
	.loc	1 3486 53
	add	x12, x8, x11
	.loc	1 3488 83
	add	x11, x10, x11
	add	x10, x10, x14
.Ltmp625:
	.loc	1 3482 51
	add	x9, x8, x9
.Ltmp626:
	.loc	1 3486 26
	stp	x12, x11, [x19, #64]
	mov	w11, #35651584
	.loc	1 3487 21
	stp	x10, x13, [x19, #96]
	mov	w10, #30408704
.Ltmp627:
	.loc	1 3493 72
	add	x10, x8, x10
	.loc	1 3494 54
	add	x11, x8, x11
	.loc	1 3482 24
	str	x9, [x19, #224]
.Ltmp628:
	.loc	1 3486 84
	add	x9, x8, x14
.Ltmp629:
	.loc	1 3493 27
	stp	x10, x11, [x19, #360]
	mov	w10, #46137344
	.loc	1 3498 55
	add	x0, x8, x10
.Ltmp630:
	.loc	1 3487 21
	stp	x13, x9, [x19, #80]
.Ltmp631:
	.loc	1 3504 47
	ldp	w11, w10, [x19, #124]
.Ltmp632:
	.loc	1 3489 30
	stp	x12, x9, [x19, #392]
	mov	w9, #40894464
	mov	w12, #51380224
	mov	w13, #52428800
.Ltmp633:
	.loc	1 3497 56
	add	x9, x8, x9
	.loc	1 3501 59
	add	x12, x8, x12
	.loc	1 3504 57
	mul	w2, w10, w11
	.loc	1 3502 66
	add	x8, x8, x13
	.loc	1 3497 29
	stp	x9, x0, [x19, #376]
	.loc	1 3501 33
	stp	x12, x8, [x19, #336]
	.loc	1 3504 2
	bl	memset
.Ltmp634:
	.loc	1 3505 50
	ldp	w8, w9, [x19, #124]
	.loc	1 3505 19 is_stmt 0
	ldr	x0, [x19, #376]
	.loc	1 3505 2
	mov	w1, wzr
	.loc	1 3505 60
	mul	w2, w9, w8
	.loc	1 3505 2
	bl	memset
.Ltmp635:
	.loc	1 0 2
	mov	w21, wzr
	b	.LBB8_12
.Ltmp636:
.LBB8_9:
	.loc	1 3445 3 is_stmt 1
	adrp	x1, .L.str.45
	mov	x0, x20
.Ltmp637:
	add	x1, x1, :lo12:.L.str.45
	bl	_dev_err
.Ltmp638:
	.loc	1 0 3 is_stmt 0
	mov	w21, #-19
	b	.LBB8_12
.Ltmp639:
.LBB8_10:
	.loc	1 3457 3 is_stmt 1
	adrp	x1, .L.str.47
.Ltmp640:
	.loc	1 0 0 is_stmt 0
	mov	w21, w0
.Ltmp641:
	.loc	1 3457 3
	add	x1, x1, :lo12:.L.str.47
	mov	x0, x20
	bl	_dev_err
.Ltmp642:
	.loc	1 0 3
	b	.LBB8_12
.Ltmp643:
.LBB8_11:
	.loc	1 3464 3 is_stmt 1
	adrp	x1, .L.str.48
	mov	x0, x20
.Ltmp644:
	add	x1, x1, :lo12:.L.str.48
	mov	w2, #53477376
	bl	_dev_err
.Ltmp645:
	.loc	1 0 3 is_stmt 0
	mov	w21, #-19
.Ltmp646:
.LBB8_12:
	mrs	x8, SP_EL0
	ldr	x8, [x8, #1584]
	ldur	x9, [x29, #-8]
	cmp	x8, x9
	b.ne	.LBB8_15
.Ltmp647:
	.loc	1 3508 1 is_stmt 1
	ldp	x20, x19, [sp, #224]
.Ltmp648:
	mov	w0, w21
	ldp	x29, x30, [sp, #192]
	ldr	x21, [sp, #208]
	ldr	x30, [x18, #-8]!
	add	sp, sp, #240
	ret
.Ltmp649:
.LBB8_14:
	.loc	1 3470 3
	adrp	x1, .L.str.49
	mov	x0, x20
	add	x1, x1, :lo12:.L.str.49
	bl	_dev_err
.Ltmp650:
	.loc	1 0 3 is_stmt 0
	b	.LBB8_7
.Ltmp651:
.LBB8_15:
	bl	__stack_chk_fail
.Ltmp652:
.Lfunc_end8:
	.size	ebc_buffer_manage_init, .Lfunc_end8-ebc_buffer_manage_init
	.cfi_endproc
	.file	192 "/home/lyx/rk-android14/kernel-6.1" "./include/linux/of_address.h"

	.p2align	2
	.type	ebc_lut_table_init,@function
ebc_lut_table_init:
.Lfunc_begin9:
	.loc	1 3390 0 is_stmt 1
	.cfi_startproc
	sub	sp, sp, #240
	str	x30, [x18], #8
	.cfi_escape 0x16, 0x12, 0x02, 0x82, 0x78
	stp	x29, x30, [sp, #192]
	add	x29, sp, #192
	str	x21, [sp, #208]
	stp	x20, x19, [sp, #224]
	.cfi_def_cfa w29, 48
	.cfi_offset w19, -8
	.cfi_offset w20, -16
	.cfi_offset w21, -32
	.cfi_offset w30, -40
	.cfi_offset w29, -48
	mrs	x8, SP_EL0
.Ltmp653:
	.loc	159 916 6 prologue_end
	adrp	x1, .L.str.50
	ldr	x8, [x8, #1584]
	mov	x19, x0
.Ltmp654:
	add	x1, x1, :lo12:.L.str.50
.Ltmp655:
	sub	x5, x29, #88
	mov	x2, xzr
	mov	w3, wzr
	stur	x8, [x29, #-8]
.Ltmp656:
	mov	w4, wzr
.Ltmp657:
	.loc	1 3392 33
	ldr	x20, [x0, #104]
.Ltmp658:
	.loc	1 3394 18
	stp	xzr, xzr, [sp, #88]
	stp	xzr, xzr, [sp, #72]
	stp	xzr, xzr, [sp, #56]
	.loc	1 3398 33
	ldr	x0, [x20, #744]
.Ltmp659:
	.loc	1 3394 18
	stp	xzr, xzr, [sp, #40]
	stp	xzr, xzr, [sp, #24]
	stp	xzr, xzr, [sp, #8]
.Ltmp660:
	.loc	159 914 25
	stp	xzr, xzr, [x29, #-24]
	stp	xzr, xzr, [x29, #-40]
	stp	xzr, xzr, [x29, #-56]
	stp	xzr, xzr, [x29, #-72]
	stp	xzr, xzr, [x29, #-88]
.Ltmp661:
	.loc	159 916 6
	bl	__of_parse_phandle_with_args
.Ltmp662:
	mov	w8, w0
	mov	w0, #-19
.Ltmp663:
	.loc	1 3399 6
	cbnz	w8, .LBB9_6
.Ltmp664:
	.loc	1 0 0 is_stmt 0
	ldur	x8, [x29, #-88]
	.loc	1 3399 6
	cbz	x8, .LBB9_6
.Ltmp665:
	.loc	1 3402 8 is_stmt 1
	add	x2, sp, #8
	mov	x0, x8
	mov	w1, wzr
	bl	of_address_to_resource
.Ltmp666:
	.loc	1 3404 6
	cbnz	w0, .LBB9_6
.Ltmp667:
	.loc	1 3407 21
	ldp	x1, x8, [sp, #8]
.Ltmp668:
	.loc	1 3413 26
	mov	x0, x20
.Ltmp669:
	mov	w3, #1
	.loc	1 3410 27
	str	x1, [x19, #40]
.Ltmp670:
	.loc	169 227 31
	sub	x8, x8, x1
	add	x21, x8, #1
.Ltmp671:
	.loc	1 3413 61
	sxtw	x2, w21
	.loc	1 3411 28
	str	w21, [x19, #48]
	.loc	1 3413 26
	bl	devm_memremap
.Ltmp672:
	.loc	1 3413 24 is_stmt 0
	str	x0, [x19, #208]
	.loc	1 3415 6 is_stmt 1
	cbz	x0, .LBB9_8
.Ltmp673:
	.loc	1 3420 8
	bl	epd_lut_from_mem_init
.Ltmp674:
	.loc	1 3421 6
	tbnz	w0, #31, .LBB9_9
.Ltmp675:
.LBB9_5:
	.loc	1 0 6 is_stmt 0
	mov	w0, wzr
.Ltmp676:
.LBB9_6:
	mrs	x8, SP_EL0
	ldr	x8, [x8, #1584]
	ldur	x9, [x29, #-8]
	cmp	x8, x9
	b.ne	.LBB9_11
.Ltmp677:
	.loc	1 3431 1 is_stmt 1
	ldp	x20, x19, [sp, #224]
.Ltmp678:
	ldp	x29, x30, [sp, #192]
	ldr	x21, [sp, #208]
	ldr	x30, [x18, #-8]!
	add	sp, sp, #240
	ret
.Ltmp679:
.LBB9_8:
	.loc	1 3416 3
	adrp	x1, .L.str.51
	adrp	x2, .L__func__.ebc_lut_table_init
	ldr	x0, [x19, #104]
	add	x1, x1, :lo12:.L.str.51
	add	x2, x2, :lo12:.L__func__.ebc_lut_table_init
	mov	w3, #3416
	bl	_dev_err
.Ltmp680:
	.loc	1 0 3 is_stmt 0
	mov	w0, #-12
	b	.LBB9_6
.Ltmp681:
.LBB9_9:
	.loc	1 3422 3 is_stmt 1
	adrp	x1, .L.str.52
	ldr	x0, [x19, #104]
.Ltmp682:
	add	x1, x1, :lo12:.L.str.52
	bl	_dev_err
.Ltmp683:
	.loc	1 3423 42
	ldr	x0, [x19, #104]
	.loc	1 3423 9 is_stmt 0
	mov	w2, w21
	.loc	1 3423 57
	ldr	x1, [x19, #208]
	.loc	1 3423 9
	bl	epd_lut_from_file_init
.Ltmp684:
	.loc	1 3424 7 is_stmt 1
	tbz	w0, #31, .LBB9_5
.Ltmp685:
	.loc	1 3425 4
	adrp	x1, .L.str.53
	ldr	x0, [x19, #104]
.Ltmp686:
	add	x1, x1, :lo12:.L.str.53
	bl	_dev_err
.Ltmp687:
	.loc	1 0 4 is_stmt 0
	mov	w0, #-1
	b	.LBB9_6
.Ltmp688:
.LBB9_11:
	bl	__stack_chk_fail
.Ltmp689:
.Lfunc_end9:
	.size	ebc_lut_table_init, .Lfunc_end9-ebc_lut_table_init
	.cfi_endproc

	.p2align	2
	.type	ebc_task_init,@function
ebc_task_init:
.Lfunc_begin10:
	.loc	1 3511 0 is_stmt 1
	.cfi_startproc
	sub	sp, sp, #48
	str	x30, [x18], #8
	.cfi_escape 0x16, 0x12, 0x02, 0x82, 0x78
	stp	x29, x30, [sp, #16]
	add	x29, sp, #16
	stp	x20, x19, [sp, #32]
	.cfi_def_cfa w29, 32
	.cfi_offset w19, -8
	.cfi_offset w20, -16
	.cfi_offset w30, -24
	.cfi_offset w29, -32
	mrs	x8, SP_EL0
	mov	x19, x0
.Ltmp690:
	.loc	1 3514 18 prologue_end
	adrp	x0, ebc_auto_tast_function
	adrp	x3, .L.str.54
	ldr	x8, [x8, #1584]
	mov	w9, #99
	add	x0, x0, :lo12:ebc_auto_tast_function
	add	x3, x3, :lo12:.L.str.54
	mov	x1, x19
	mov	w2, #-1
	str	x8, [sp, #8]
	.loc	1 3512 21
	str	w9, [sp]
	.loc	1 3514 18
	bl	kthread_create_on_node
.Ltmp691:
	.loc	1 3514 16 is_stmt 0
	adrp	x20, ebc_auto_task
	.loc	1 3515 6 is_stmt 1
	cmn	x0, #4095
	.loc	1 3514 16
	str	x0, [x20, :lo12:ebc_auto_task]
	.loc	1 3515 6
	b.lo	.LBB10_2
.Ltmp692:
	.loc	1 3516 3
	adrp	x1, .L.str.55
	ldr	x0, [x19, #104]
	add	x1, x1, :lo12:.L.str.55
	b	.LBB10_7
.Ltmp693:
.LBB10_2:
	.loc	1 3519 2
	mov	x2, sp
	mov	w1, #1
	bl	sched_setscheduler_nocheck
.Ltmp694:
	.loc	1 3520 18
	ldr	x8, [x20, :lo12:ebc_auto_task]
.Ltmp695:
	.file	193 "/home/lyx/rk-android14/kernel-6.1" "./include/linux/sched/task.h"
	.loc	193 110 19
	add	x0, x8, #64
.Ltmp696:
	.file	194 "/home/lyx/rk-android14/kernel-6.1" "./arch/arm64/include/asm/alternative-macros.h"
	.loc	194 233 2
	//APP
.Ltmp698:
	b	.Ltmp697
.Ltmp699:
	.section	.altinstructions,"a",@progbits
.Ltmp700:
	.word	.Ltmp698-.Ltmp700
.Ltmp701:
	.word	alt_cb_patch_nops-.Ltmp701
	.hword	32794
	.byte	.Ltmp699-.Ltmp698
	.byte	.Ltmp702-.Ltmp703
	.text

.Ltmp703:
.Ltmp702:

	//NO_APP
.Ltmp704:
	.loc	194 0 2 is_stmt 0
	mov	w8, #1
.Ltmp705:
	.file	195 "/home/lyx/rk-android14/kernel-6.1" "./arch/arm64/include/asm/atomic_lse.h"
	.loc	195 62 1 is_stmt 1
	//APP
	ldadd	w8, w8, [x0]
	//NO_APP
.Ltmp706:
	.loc	45 198 6
	cbz	w8, .LBB10_24
.Ltmp707:
.LBB10_4:
	.loc	45 200 11
	add	w9, w8, #1
	orr	w8, w9, w8
.Ltmp708:
	.loc	45 200 11 is_stmt 0
	tbnz	w8, #31, .LBB10_19
.Ltmp709:
.LBB10_5:
	.loc	1 3523 25 is_stmt 1
	adrp	x0, ebc_auto_assist_tast_function
	adrp	x3, .L.str.56
	add	x0, x0, :lo12:ebc_auto_assist_tast_function
	add	x3, x3, :lo12:.L.str.56
	mov	x1, x19
	mov	w2, #-1
	bl	kthread_create_on_node
.Ltmp710:
	.loc	1 3523 23 is_stmt 0
	adrp	x20, ebc_auto_assist_task
	.loc	1 3524 6 is_stmt 1
	cmn	x0, #4095
	.loc	1 3523 23
	str	x0, [x20, :lo12:ebc_auto_assist_task]
	.loc	1 3524 6
	b.lo	.LBB10_8
.Ltmp711:
	.loc	1 3525 3
	ldr	x0, [x19, #104]
	adrp	x1, .L.str.57
	add	x1, x1, :lo12:.L.str.57
.Ltmp712:
.LBB10_7:
	.loc	1 0 0 is_stmt 0
	bl	_dev_err
.Ltmp713:
	mov	w0, #-1
	b	.LBB10_16
.Ltmp714:
.LBB10_8:
	.loc	1 3528 2 is_stmt 1
	mov	x2, sp
	mov	w1, #1
	bl	sched_setscheduler_nocheck
.Ltmp715:
	.loc	1 3529 18
	ldr	x8, [x20, :lo12:ebc_auto_assist_task]
.Ltmp716:
	.loc	193 110 19
	add	x0, x8, #64
.Ltmp717:
	.loc	194 233 2
	//APP
.Ltmp719:
	b	.Ltmp718
.Ltmp720:
	.section	.altinstructions,"a",@progbits
.Ltmp721:
	.word	.Ltmp719-.Ltmp721
.Ltmp722:
	.word	alt_cb_patch_nops-.Ltmp722
	.hword	32794
	.byte	.Ltmp720-.Ltmp719
	.byte	.Ltmp723-.Ltmp724
	.text

.Ltmp724:
.Ltmp723:

	//NO_APP
.Ltmp725:
	.loc	194 0 2 is_stmt 0
	mov	w8, #1
.Ltmp726:
	.loc	195 62 1 is_stmt 1
	//APP
	ldadd	w8, w8, [x0]
	//NO_APP
.Ltmp727:
	.loc	45 198 6
	cbz	w8, .LBB10_27
.Ltmp728:
.LBB10_10:
	.loc	45 200 11
	add	w9, w8, #1
	orr	w8, w9, w8
.Ltmp729:
	.loc	45 200 11 is_stmt 0
	tbnz	w8, #31, .LBB10_20
.Ltmp730:
.LBB10_11:
	.loc	1 3530 2 is_stmt 1
	adrp	x1, .L.str.58
	ldr	x0, [x19, #104]
	add	x1, x1, :lo12:.L.str.58
	bl	_dev_info
.Ltmp731:
	.loc	1 3534 13
	adrp	x0, ebc_thread
	adrp	x3, .L.str.59
	mov	w8, #99
	add	x0, x0, :lo12:ebc_thread
	add	x3, x3, :lo12:.L.str.59
	mov	x1, x19
	mov	w2, #-1
.Ltmp732:
	.loc	1 3533 23
	str	w8, [sp]
.Ltmp733:
	.loc	1 3534 13
	bl	kthread_create_on_node
.Ltmp734:
	mov	x20, x0
.Ltmp735:
	cmn	x0, #4095
	b.hs	.LBB10_18
.Ltmp736:
	.loc	1 3534 13 is_stmt 0
	mov	x0, x20
	bl	wake_up_process
.Ltmp737:
	.loc	1 3534 11
	adrp	x19, ebc_task
.Ltmp738:
	.loc	1 3539 2 is_stmt 1
	mov	x2, sp
	mov	x0, x20
	mov	w1, #1
	.loc	1 3534 11
	str	x20, [x19, :lo12:ebc_task]
.Ltmp739:
	.loc	1 3539 2
	bl	sched_setscheduler_nocheck
.Ltmp740:
	.loc	1 3540 18
	ldr	x8, [x19, :lo12:ebc_task]
.Ltmp741:
	.loc	193 110 19
	add	x0, x8, #64
.Ltmp742:
	.loc	194 233 2
	//APP
.Ltmp744:
	b	.Ltmp743
.Ltmp745:
	.section	.altinstructions,"a",@progbits
.Ltmp746:
	.word	.Ltmp744-.Ltmp746
.Ltmp747:
	.word	alt_cb_patch_nops-.Ltmp747
	.hword	32794
	.byte	.Ltmp745-.Ltmp744
	.byte	.Ltmp748-.Ltmp749
	.text

.Ltmp749:
.Ltmp748:

	//NO_APP
.Ltmp750:
	.loc	194 0 2 is_stmt 0
	mov	w8, #1
.Ltmp751:
	.loc	195 62 1 is_stmt 1
	//APP
	ldadd	w8, w8, [x0]
	//NO_APP
.Ltmp752:
	.loc	45 198 6
	cbz	w8, .LBB10_30
.Ltmp753:
.LBB10_14:
	.loc	45 200 11
	add	w9, w8, #1
	orr	w8, w9, w8
.Ltmp754:
	.loc	45 200 11 is_stmt 0
	tbnz	w8, #31, .LBB10_21
.Ltmp755:
.LBB10_15:
	.loc	45 0 11
	mov	w0, wzr
.Ltmp756:
.LBB10_16:
	mrs	x8, SP_EL0
	ldr	x8, [x8, #1584]
	ldr	x9, [sp, #8]
	cmp	x8, x9
	b.ne	.LBB10_22
	.loc	1 3543 1 is_stmt 1
	ldp	x20, x19, [sp, #32]
	ldp	x29, x30, [sp, #16]
	ldr	x30, [x18, #-8]!
	add	sp, sp, #48
	ret
.LBB10_18:
.Ltmp757:
	.loc	1 3534 11
	adrp	x8, ebc_task
.Ltmp758:
	.loc	1 3536 3
	ldr	x0, [x19, #104]
	adrp	x1, .L.str.60
	add	x1, x1, :lo12:.L.str.60
.Ltmp759:
	.loc	1 3534 11
	str	x20, [x8, :lo12:ebc_task]
.Ltmp760:
	.loc	1 0 11 is_stmt 0
	b	.LBB10_7
.Ltmp761:
.LBB10_19:
	mov	w1, #1
	b	.LBB10_25
.Ltmp762:
.LBB10_20:
	mov	w1, #1
	b	.LBB10_28
.Ltmp763:
.LBB10_21:
	mov	w1, #1
	b	.LBB10_31
.Ltmp764:
.LBB10_22:
	bl	__stack_chk_fail
.Ltmp765:
.Ltmp697:
.LBB10_23:
	.file	196 "/home/lyx/rk-android14/kernel-6.1" "./arch/arm64/include/asm/atomic_ll_sc.h"
	.loc	196 95 1 is_stmt 1
	//APP
	// atomic_fetch_add_relaxed
	prfm	pstl1strm, [x0]
.Ltmp766:
	ldxr	w8, [x0]
	add	w9, w8, #1
	stxr	w10, w9, [x0]
	cbnz	w10, .Ltmp766

	//NO_APP
.Ltmp767:
	.loc	45 198 6
	cbnz	w8, .LBB10_4
.Ltmp768:
.LBB10_24:
	.loc	45 0 6 is_stmt 0
	mov	w1, #2
.Ltmp769:
.LBB10_25:
	bl	refcount_warn_saturate
.Ltmp770:
	b	.LBB10_5
.Ltmp771:
.Ltmp718:
.LBB10_26:
	.loc	196 95 1 is_stmt 1
	//APP
	// atomic_fetch_add_relaxed
	prfm	pstl1strm, [x0]
.Ltmp772:
	ldxr	w8, [x0]
	add	w9, w8, #1
	stxr	w10, w9, [x0]
	cbnz	w10, .Ltmp772

	//NO_APP
.Ltmp773:
	.loc	45 198 6
	cbnz	w8, .LBB10_10
.Ltmp774:
.LBB10_27:
	.loc	45 0 6 is_stmt 0
	mov	w1, #2
.Ltmp775:
.LBB10_28:
	bl	refcount_warn_saturate
.Ltmp776:
	b	.LBB10_11
.Ltmp777:
.Ltmp743:
.LBB10_29:
	.loc	196 95 1 is_stmt 1
	//APP
	// atomic_fetch_add_relaxed
	prfm	pstl1strm, [x0]
.Ltmp778:
	ldxr	w8, [x0]
	add	w9, w8, #1
	stxr	w10, w9, [x0]
	cbnz	w10, .Ltmp778

	//NO_APP
.Ltmp779:
	.loc	45 198 6
	cbnz	w8, .LBB10_14
.Ltmp780:
.LBB10_30:
	.loc	45 0 6 is_stmt 0
	mov	w1, #2
.Ltmp781:
.LBB10_31:
	bl	refcount_warn_saturate
.Ltmp782:
	b	.LBB10_15
.Ltmp783:
.Lfunc_end10:
	.size	ebc_task_init, .Lfunc_end10-ebc_task_init
	.cfi_endproc
	.file	197 "/home/lyx/rk-android14/kernel-6.1" "./arch/arm64/include/asm/lse.h"
	.file	198 "/home/lyx/rk-android14/kernel-6.1" "./arch/arm64/include/asm/atomic.h"
	.file	199 "/home/lyx/rk-android14/kernel-6.1" "./include/linux/atomic/atomic-instrumented.h"
	.file	200 "/home/lyx/rk-android14/kernel-6.1" "./include/linux/kthread.h"
	.file	201 "/home/lyx/rk-android14/kernel-6.1" "./include/uapi/linux/sched/types.h"

	.p2align	2
	.type	ebc_other_init,@function
ebc_other_init:
.Lfunc_begin11:
	.loc	1 3546 0 is_stmt 1
	.cfi_startproc
	str	x30, [x18], #8
	.cfi_escape 0x16, 0x12, 0x02, 0x82, 0x78
	stp	x29, x30, [sp, #-48]!
	stp	x22, x21, [sp, #16]
	mov	x29, sp
	stp	x20, x19, [sp, #32]
	.cfi_def_cfa w29, 48
	.cfi_offset w19, -8
	.cfi_offset w20, -16
	.cfi_offset w21, -24
	.cfi_offset w22, -32
	.cfi_offset w30, -40
	.cfi_offset w29, -48
	mov	w8, #-1
	mov	x9, #4294967296
	mov	x19, x0
.Ltmp784:
	.loc	1 3548 29 prologue_end
	str	wzr, [x0, #200]
	.loc	1 3551 29
	str	xzr, [x0, #584]
	.loc	1 3549 26
	stur	x8, [x0, #84]
	mov	x8, #4294967297
	.loc	1 3557 33
	str	x9, [x0, #248]
	.loc	1 3553 31
	str	wzr, [x0, #100]
	.loc	1 3558 30
	str	x8, [x0, #600]
	mov	w8, #1
	.loc	1 3554 24
	str	wzr, [x19, #52]
	.loc	1 3555 23
	str	wzr, [x19, #68]
.Ltmp785:
	.loc	1 3560 32
	str	x8, [x0, #608]
	.loc	1 3564 28
	adds	x0, x0, #256
.Ltmp786:
	.loc	177 41 6
	b.eq	.LBB11_2
.Ltmp787:
	.loc	177 43 12
	adrp	x8, .L.str.94
	.loc	177 42 3
	stp	xzr, xzr, [x19, #448]
	.loc	177 43 12
	add	x8, x8, :lo12:.L.str.94
	.loc	177 42 3
	stp	xzr, xzr, [x19, #432]
	stp	xzr, xzr, [x19, #416]
	stp	xzr, xzr, [x19, #400]
	stp	xzr, xzr, [x19, #384]
	stp	xzr, xzr, [x19, #368]
	stp	xzr, xzr, [x19, #352]
	stp	xzr, xzr, [x19, #336]
	stp	xzr, xzr, [x19, #320]
	stp	xzr, xzr, [x19, #304]
	stp	xzr, xzr, [x19, #288]
	stp	xzr, xzr, [x19, #272]
	stp	x8, xzr, [x19, #256]
.Ltmp788:
.LBB11_2:
	.loc	177 45 2
	bl	wakeup_source_add
.Ltmp789:
	.loc	1 3568 2
	add	x20, x19, #472
	adrp	x1, ebc_frame_control_timeout
	add	x1, x1, :lo12:ebc_frame_control_timeout
	mov	x0, x20
	mov	w2, wzr
	mov	x3, xzr
	mov	x4, xzr
	.loc	1 3565 29
	str	wzr, [x19, #464]
	.loc	1 3568 2
	bl	init_timer_key
.Ltmp790:
	.loc	1 3569 44
	adrp	x21, jiffies
	mov	w22, #268435455
	.loc	1 3569 2 is_stmt 0
	mov	x0, x20
	.loc	1 3569 44
	ldr	x8, [x21, :lo12:jiffies]
	.loc	1 3569 52
	add	x1, x8, x22
	.loc	1 3569 2
	bl	mod_timer
.Ltmp791:
	.loc	1 3572 2 is_stmt 1
	add	x19, x19, #528
.Ltmp792:
	adrp	x1, ebc_frame_timeout
	add	x1, x1, :lo12:ebc_frame_timeout
	mov	x0, x19
	mov	w2, wzr
	mov	x3, xzr
	mov	x4, xzr
	bl	init_timer_key
.Ltmp793:
	.loc	1 3573 36
	ldr	x8, [x21, :lo12:jiffies]
	.loc	1 3573 2 is_stmt 0
	mov	x0, x19
	.loc	1 3573 44
	add	x1, x8, x22
	.loc	1 3573 2
	bl	mod_timer
.Ltmp794:
	.loc	1 3574 1 is_stmt 1
	ldp	x20, x19, [sp, #32]
	ldp	x22, x21, [sp, #16]
	ldp	x29, x30, [sp], #48
	ldr	x30, [x18, #-8]!
	ret
.Ltmp795:
.Lfunc_end11:
	.size	ebc_other_init, .Lfunc_end11-ebc_other_init
	.cfi_endproc

	.p2align	2
	.type	ebc_logo_init,@function
ebc_logo_init:
.Lfunc_begin12:
	.loc	1 3589 0
	.cfi_startproc
	sub	sp, sp, #80
	str	x30, [x18], #8
	.cfi_escape 0x16, 0x12, 0x02, 0x82, 0x78
	stp	x29, x30, [sp, #16]
	add	x29, sp, #16
	stp	x24, x23, [sp, #32]
	stp	x22, x21, [sp, #48]
	stp	x20, x19, [sp, #64]
	.cfi_def_cfa w29, 64
	.cfi_offset w19, -8
	.cfi_offset w20, -16
	.cfi_offset w21, -24
	.cfi_offset w22, -32
	.cfi_offset w23, -40
	.cfi_offset w24, -48
	.cfi_offset w30, -56
	.cfi_offset w29, -64
	mrs	x8, SP_EL0
.Ltmp796:
	.loc	1 3595 32 prologue_end
	adrp	x9, saved_command_line
	ldr	x8, [x8, #1584]
	mov	x20, x1
.Ltmp797:
	.loc	1 3595 25 is_stmt 0
	adrp	x1, .L.str.96
	mov	x19, x0
.Ltmp798:
	add	x1, x1, :lo12:.L.str.96
	str	x8, [sp, #8]
.Ltmp799:
	.loc	1 3595 32
	ldr	x22, [x9, :lo12:saved_command_line]
	.loc	1 3591 15 is_stmt 1
	str	xzr, [sp]
.Ltmp800:
	.loc	1 3595 25
	mov	x0, x22
	bl	strstr
.Ltmp801:
	.loc	1 3596 25
	adrp	x1, .L.str.97
	.loc	1 3595 25
	mov	x21, x0
.Ltmp802:
	.loc	1 3596 25
	add	x1, x1, :lo12:.L.str.97
	mov	x0, x22
	bl	strstr
.Ltmp803:
	mov	x22, x0
.Ltmp804:
	.loc	1 3601 6
	cbz	x21, .LBB12_3
.Ltmp805:
	.loc	1 3602 3
	adrp	x1, .L.str.98
	add	x2, sp, #4
	add	x1, x1, :lo12:.L.str.98
	mov	x0, x21
	bl	sscanf
.Ltmp806:
	.loc	1 3603 7
	ldr	w2, [sp, #4]
.Ltmp807:
	.loc	1 3603 31 is_stmt 0
	ldr	x8, [x19, #208]
.Ltmp808:
	.loc	1 3603 7
	cmp	x8, x2
	b.ls	.LBB12_26
.Ltmp809:
	.loc	1 0 7
	mov	x21, xzr
.Ltmp810:
.LBB12_3:
	mov	w23, #1
.Ltmp811:
	.loc	1 3615 6 is_stmt 1
	cbz	x22, .LBB12_28
.Ltmp812:
.LBB12_4:
	.loc	1 3616 3
	adrp	x1, .L.str.101
	mov	x2, sp
	add	x1, x1, :lo12:.L.str.101
	mov	x0, x22
	bl	sscanf
.Ltmp813:
	.loc	1 3617 7
	ldr	w2, [sp]
.Ltmp814:
	.loc	1 3617 31 is_stmt 0
	ldr	x8, [x19, #208]
.Ltmp815:
	.loc	1 3617 7
	cmp	x8, x2
	b.ls	.LBB12_31
.Ltmp816:
	.loc	1 0 7
	mov	x22, xzr
.Ltmp817:
	mov	w24, #1
.Ltmp818:
	.loc	1 3629 6 is_stmt 1
	cbnz	w23, .LBB12_29
.Ltmp819:
.LBB12_6:
	.loc	1 3639 9
	adrp	x0, .L.str.105
	add	x0, x0, :lo12:.L.str.105
	bl	ebc_empty_buf_get
.Ltmp820:
	.loc	1 3640 7
	cbz	x0, .LBB12_12
.Ltmp821:
	.loc	1 3641 70
	ldp	w8, w9, [x20, #84]
	.loc	1 3641 80 is_stmt 0
	mul	w8, w9, w8
.Ltmp822:
	.loc	1 3581 2 is_stmt 1
	cmp	w8, #2
	b.lo	.LBB12_10
.Ltmp823:
	.loc	1 0 0 is_stmt 0
	lsr	w8, w8, #1
	.loc	1 3641 52 is_stmt 1
	ldr	x9, [x0, #16]
	mov	x10, x21
.Ltmp824:
.LBB12_9:
	.loc	1 3582 15
	ldrb	w11, [x10], #1
.Ltmp825:
	.loc	1 3581 16
	subs	w8, w8, #1
.Ltmp826:
	.loc	1 3583 38
	lsl	w12, w11, #4
.Ltmp827:
	.loc	1 3584 30
	and	w11, w11, #0xf0
.Ltmp828:
	.loc	1 3583 17
	strb	w12, [x9]
	.loc	1 3584 17
	strb	w11, [x9, #1]
.Ltmp829:
	.loc	1 3581 2
	add	x9, x9, #2
.Ltmp830:
	b.ne	.LBB12_9
.Ltmp831:
.LBB12_10:
	.loc	1 0 2 is_stmt 0
	mov	w8, #7
	.loc	1 3643 16 is_stmt 1
	str	xzr, [x0, #48]
	mov	w9, #1
	.loc	1 3642 18
	str	w8, [x0, #40]
	.loc	1 3645 25
	ldr	w8, [x20, #84]
	.loc	1 3645 16 is_stmt 0
	str	w8, [x0, #56]
	.loc	1 3646 25 is_stmt 1
	ldr	w8, [x20, #88]
	.loc	1 3646 16 is_stmt 0
	stp	w8, w9, [x0, #60]
.Ltmp832:
.LBB12_11:
	.loc	1 0 0
	bl	ebc_add_to_dsp_buf_list
.Ltmp833:
.LBB12_12:
	.loc	1 3652 6 is_stmt 1
	tbnz	w24, #0, .LBB12_18
.Ltmp834:
	.loc	1 3653 9
	adrp	x0, .L.str.105
	add	x0, x0, :lo12:.L.str.105
	bl	ebc_empty_buf_get
.Ltmp835:
	.loc	1 3654 7
	cbz	x0, .LBB12_18
.Ltmp836:
	.loc	1 3655 70
	ldp	w8, w9, [x20, #84]
	.loc	1 3655 80 is_stmt 0
	mul	w8, w9, w8
.Ltmp837:
	.loc	1 3581 2 is_stmt 1
	cmp	w8, #2
	b.lo	.LBB12_17
.Ltmp838:
	.loc	1 0 0 is_stmt 0
	lsr	w8, w8, #1
	.loc	1 3655 52 is_stmt 1
	ldr	x9, [x0, #16]
	mov	x10, x22
.Ltmp839:
.LBB12_16:
	.loc	1 3582 15
	ldrb	w11, [x10], #1
.Ltmp840:
	.loc	1 3581 16
	subs	w8, w8, #1
.Ltmp841:
	.loc	1 3583 38
	lsl	w12, w11, #4
.Ltmp842:
	.loc	1 3584 30
	and	w11, w11, #0xf0
.Ltmp843:
	.loc	1 3583 17
	strb	w12, [x9]
	.loc	1 3584 17
	strb	w11, [x9, #1]
.Ltmp844:
	.loc	1 3581 2
	add	x9, x9, #2
.Ltmp845:
	b.ne	.LBB12_16
.Ltmp846:
.LBB12_17:
	.loc	1 0 2 is_stmt 0
	mov	w8, #7
	.loc	1 3657 16 is_stmt 1
	str	xzr, [x0, #48]
	mov	w9, #1
	.loc	1 3656 18
	str	w8, [x0, #40]
	.loc	1 3659 25
	ldr	w8, [x20, #84]
	.loc	1 3659 16 is_stmt 0
	str	w8, [x0, #56]
	.loc	1 3660 25 is_stmt 1
	ldr	w8, [x20, #88]
	.loc	1 3660 16 is_stmt 0
	stp	w8, w9, [x0, #60]
	.loc	1 3662 4 is_stmt 1
	bl	ebc_add_to_dsp_buf_list
.Ltmp847:
.LBB12_18:
	.loc	1 3666 21
	ldr	w8, [x19, #308]
.Ltmp848:
	.loc	1 3666 6 is_stmt 0
	cbnz	w8, .LBB12_20
.Ltmp849:
	.loc	1 3668 3 is_stmt 1
	adrp	x0, ebc_thread_wq
	mov	w8, #1
	add	x0, x0, :lo12:ebc_thread_wq
	mov	w1, #1
	.loc	1 3667 32
	str	w8, [x19, #308]
	.loc	1 3668 3
	bl	__wake_up_sync
.Ltmp850:
.LBB12_20:
	.loc	1 3671 6
	cbz	x21, .LBB12_22
.Ltmp851:
	.loc	1 3672 3
	mov	x0, x21
	bl	kfree
.Ltmp852:
.LBB12_22:
	.loc	1 3673 6
	cbz	x22, .LBB12_24
.Ltmp853:
	.loc	1 3674 3
	mov	x0, x22
	bl	kfree
.Ltmp854:
.LBB12_24:
	.loc	1 0 3 is_stmt 0
	mrs	x8, SP_EL0
	ldr	x8, [x8, #1584]
	ldr	x9, [sp, #8]
	cmp	x8, x9
	b.ne	.LBB12_37
.Ltmp855:
	.loc	1 3677 1 is_stmt 1
	ldp	x20, x19, [sp, #64]
.Ltmp856:
	ldp	x22, x21, [sp, #48]
	ldp	x24, x23, [sp, #32]
	ldp	x29, x30, [sp, #16]
	ldr	x30, [x18, #-8]!
	add	sp, sp, #80
	ret
.Ltmp857:
.LBB12_26:
	.loc	1 3605 4
	adrp	x1, .L.str.99
	ldr	x0, [x19, #312]
	add	x1, x1, :lo12:.L.str.99
	bl	_dev_info
.Ltmp858:
	.loc	1 3606 50
	ldp	w9, w8, [x20, #84]
.Ltmp859:
	.loc	184 558 9
	mov	w1, #3520
.Ltmp860:
	.loc	1 3606 41
	mul	w8, w8, w9
.Ltmp861:
	.loc	1 3606 61 is_stmt 0
	lsr	w0, w8, #1
.Ltmp862:
	.loc	184 558 9 is_stmt 1
	bl	__kmalloc
.Ltmp863:
	.loc	1 3607 8
	cbz	x0, .LBB12_35
.Ltmp864:
	.loc	1 3611 116
	ldp	w9, w8, [x20, #84]
	.loc	1 3611 73 is_stmt 0
	ldp	x11, x12, [x19, #208]
	.loc	1 0 0
	mov	x21, x0
.Ltmp865:
	.loc	1 3611 50
	ldr	w10, [sp, #4]
.Ltmp866:
	.loc	1 3611 107
	mul	w8, w8, w9
	.loc	1 3611 61
	sub	x9, x10, x11
	.loc	1 3611 127
	lsr	w2, w8, #1
	.loc	1 3611 47
	add	x1, x12, x9
	.loc	1 3611 4
	bl	memcpy
.Ltmp867:
	.loc	1 0 4
	mov	w23, wzr
.Ltmp868:
	.loc	1 3615 6 is_stmt 1
	cbnz	x22, .LBB12_4
.Ltmp869:
.LBB12_28:
	.loc	1 0 6 is_stmt 0
	mov	w24, #1
.Ltmp870:
	.loc	1 3629 6 is_stmt 1
	cbz	w23, .LBB12_6
.Ltmp871:
.LBB12_29:
	.loc	1 3630 3
	adrp	x1, .L.str.104
	ldr	x0, [x19, #312]
	add	x1, x1, :lo12:.L.str.104
	bl	_dev_info
.Ltmp872:
	.loc	1 3631 12
	ldr	x0, [x19, #16]
.Ltmp873:
	.loc	1 3631 7 is_stmt 0
	cbz	x0, .LBB12_33
.Ltmp874:
	.loc	1 3632 4 is_stmt 1
	bl	ebc_pmic_verity_vcom
.Ltmp875:
	.loc	1 0 4 is_stmt 0
	b	.LBB12_34
.Ltmp876:
.LBB12_31:
	.loc	1 3619 4 is_stmt 1
	adrp	x1, .L.str.102
	ldr	x0, [x19, #312]
	add	x1, x1, :lo12:.L.str.102
	bl	_dev_info
.Ltmp877:
	.loc	1 3620 50
	ldp	w9, w8, [x20, #84]
.Ltmp878:
	.loc	184 558 9
	mov	w1, #3520
.Ltmp879:
	.loc	1 3620 41
	mul	w8, w8, w9
.Ltmp880:
	.loc	1 3620 61 is_stmt 0
	lsr	w0, w8, #1
.Ltmp881:
	.loc	184 558 9 is_stmt 1
	bl	__kmalloc
.Ltmp882:
	.loc	1 3621 8
	cbz	x0, .LBB12_36
.Ltmp883:
	.loc	1 3625 116
	ldp	w9, w8, [x20, #84]
	.loc	1 3625 73 is_stmt 0
	ldp	x11, x12, [x19, #208]
	.loc	1 0 0
	mov	x22, x0
.Ltmp884:
	.loc	1 3625 50
	ldr	w10, [sp]
.Ltmp885:
	.loc	1 3625 107
	mul	w8, w8, w9
	.loc	1 3625 61
	sub	x9, x10, x11
	.loc	1 3625 127
	lsr	w2, w8, #1
	.loc	1 3625 47
	add	x1, x12, x9
	.loc	1 3625 4
	bl	memcpy
.Ltmp886:
	.loc	1 0 4
	mov	w24, wzr
.Ltmp887:
	.loc	1 3629 6 is_stmt 1
	cbz	w23, .LBB12_6
	b	.LBB12_29
.Ltmp888:
.LBB12_33:
	.loc	1 3634 35
	ldr	x0, [x19, #24]
	.loc	1 3634 4 is_stmt 0
	bl	ebc_regulator_verity_vcom
.Ltmp889:
.LBB12_34:
	.loc	1 2862 8 is_stmt 1
	adrp	x0, .L.str.106
	add	x0, x0, :lo12:.L.str.106
	bl	ebc_empty_buf_get
.Ltmp890:
	.loc	1 2863 38
	ldp	w8, w9, [x20, #84]
	.loc	1 2862 8
	mov	x23, x0
.Ltmp891:
	.loc	1 2863 14
	ldr	x0, [x0, #16]
	.loc	1 2863 2 is_stmt 0
	mov	w1, #240
	.loc	1 2863 48
	mul	w2, w9, w8
	.loc	1 2863 2
	bl	memset
.Ltmp892:
	.loc	1 0 2
	mov	w8, #17
	.loc	1 2865 14 is_stmt 1
	str	xzr, [x23, #48]
	mov	w9, #1
	.loc	1 2870 2
	mov	x0, x23
	.loc	1 2864 16
	str	w8, [x23, #40]
	.loc	1 2867 23
	ldr	w8, [x20, #84]
	.loc	1 2867 14 is_stmt 0
	str	w8, [x23, #56]
	.loc	1 2868 23 is_stmt 1
	ldr	w8, [x20, #88]
	.loc	1 2868 14 is_stmt 0
	stp	w8, w9, [x23, #60]
	b	.LBB12_11
.Ltmp893:
.LBB12_35:
	.loc	1 3608 5 is_stmt 1
	adrp	x1, .L.str.100
	ldr	x0, [x19, #312]
.Ltmp894:
	add	x1, x1, :lo12:.L.str.100
	bl	_dev_err
.Ltmp895:
	.loc	1 0 5 is_stmt 0
	b	.LBB12_24
.Ltmp896:
.LBB12_36:
	.loc	1 3622 5 is_stmt 1
	adrp	x1, .L.str.103
	ldr	x0, [x19, #312]
.Ltmp897:
	add	x1, x1, :lo12:.L.str.103
	bl	_dev_err
.Ltmp898:
	.loc	1 0 5 is_stmt 0
	b	.LBB12_24
.Ltmp899:
.LBB12_37:
	bl	__stack_chk_fail
.Ltmp900:
.Lfunc_end12:
	.size	ebc_logo_init, .Lfunc_end12-ebc_logo_init
	.cfi_endproc

	.p2align	2
	.type	ebc_sysfs_init,@function
ebc_sysfs_init:
.Lfunc_begin13:
	.loc	1 3373 0 is_stmt 1
	.cfi_startproc
	str	x30, [x18], #8
	.cfi_escape 0x16, 0x12, 0x02, 0x82, 0x78
	stp	x29, x30, [sp, #-32]!
	str	x19, [sp, #16]
	mov	x29, sp
	.cfi_def_cfa w29, 32
	.cfi_offset w19, -16
	.cfi_offset w30, -24
	.cfi_offset w29, -32
	mov	x19, x0
.Ltmp901:
	.loc	1 3374 2 prologue_end
	adrp	x0, ebc_misc
	add	x0, x0, :lo12:ebc_misc
	bl	misc_register
.Ltmp902:
	.loc	1 3375 2
	adrp	x0, waveform_misc
	add	x0, x0, :lo12:waveform_misc
	bl	misc_register
.Ltmp903:
	.loc	1 3377 2
	adrp	x1, dev_attr_waveform_version
	.loc	1 3377 31 is_stmt 0
	ldr	x0, [x19, #104]
	.loc	1 3377 2
	add	x1, x1, :lo12:dev_attr_waveform_version
	bl	device_create_file
.Ltmp904:
	.loc	1 3378 2 is_stmt 1
	adrp	x1, dev_attr_pmic_name
	.loc	1 3378 31 is_stmt 0
	ldr	x0, [x19, #104]
	.loc	1 3378 2
	add	x1, x1, :lo12:dev_attr_pmic_name
	bl	device_create_file
.Ltmp905:
	.loc	1 3379 2 is_stmt 1
	adrp	x1, dev_attr_pmic_temp
	.loc	1 3379 31 is_stmt 0
	ldr	x0, [x19, #104]
	.loc	1 3379 2
	add	x1, x1, :lo12:dev_attr_pmic_temp
	bl	device_create_file
.Ltmp906:
	.loc	1 3380 2 is_stmt 1
	adrp	x1, dev_attr_pmic_vcom
	.loc	1 3380 31 is_stmt 0
	ldr	x0, [x19, #104]
	.loc	1 3380 2
	add	x1, x1, :lo12:dev_attr_pmic_vcom
	bl	device_create_file
.Ltmp907:
	.loc	1 3381 2 is_stmt 1
	adrp	x1, dev_attr_ebc_version
	.loc	1 3381 31 is_stmt 0
	ldr	x0, [x19, #104]
	.loc	1 3381 2
	add	x1, x1, :lo12:dev_attr_ebc_version
	bl	device_create_file
.Ltmp908:
	.loc	1 3382 2 is_stmt 1
	adrp	x1, dev_attr_ebc_state
	.loc	1 3382 31 is_stmt 0
	ldr	x0, [x19, #104]
	.loc	1 3382 2
	add	x1, x1, :lo12:dev_attr_ebc_state
	bl	device_create_file
.Ltmp909:
	.loc	1 3383 2 is_stmt 1
	adrp	x1, dev_attr_ebc_buf_state
	.loc	1 3383 31 is_stmt 0
	ldr	x0, [x19, #104]
	.loc	1 3383 2
	add	x1, x1, :lo12:dev_attr_ebc_buf_state
	bl	device_create_file
.Ltmp910:
	.loc	1 3384 2 is_stmt 1
	adrp	x1, dev_attr_auto_frame_state
	.loc	1 3384 31 is_stmt 0
	ldr	x0, [x19, #104]
	.loc	1 3384 2
	add	x1, x1, :lo12:dev_attr_auto_frame_state
	bl	device_create_file
.Ltmp911:
	.loc	1 3386 2 is_stmt 1
	ldr	x19, [sp, #16]
.Ltmp912:
	ldp	x29, x30, [sp], #32
	ldr	x30, [x18, #-8]!
	ret
.Ltmp913:
.Lfunc_end13:
	.size	ebc_sysfs_init, .Lfunc_end13-ebc_sysfs_init
	.cfi_endproc

	.p2align	2
	.type	ebc_auto_tast_function,@function
ebc_auto_tast_function:
.Lfunc_begin14:
	.loc	1 1886 0
	.cfi_startproc
	sub	sp, sp, #112
	str	x30, [x18], #8
	.cfi_escape 0x16, 0x12, 0x02, 0x82, 0x78
	stp	x29, x30, [sp, #16]
	add	x29, sp, #16
	stp	x28, x27, [sp, #32]
	stp	x26, x25, [sp, #48]
	stp	x24, x23, [sp, #64]
	stp	x22, x21, [sp, #80]
	stp	x20, x19, [sp, #96]
	.cfi_def_cfa w29, 96
	.cfi_offset w19, -8
	.cfi_offset w20, -16
	.cfi_offset w21, -24
	.cfi_offset w22, -32
	.cfi_offset w23, -40
	.cfi_offset w24, -48
	.cfi_offset w25, -56
	.cfi_offset w26, -64
	.cfi_offset w27, -72
	.cfi_offset w28, -80
	.cfi_offset w30, -88
	.cfi_offset w29, -96
.Ltmp914:
	.loc	1 1887 20 prologue_end
	adrp	x8, global_ebc
	adrp	x19, ebc_auto_thread_sem
	adrp	x22, ebc_assist_finished_flag_sem
	add	x19, x19, :lo12:ebc_auto_thread_sem
	mov	w24, #2
	mov	w26, #1
	ldr	x23, [x8, :lo12:global_ebc]
.Ltmp915:
	.loc	1 0 20 is_stmt 0
	mov	w28, #255
	add	x22, x22, :lo12:ebc_assist_finished_flag_sem
	//APP
	mrs	x21, SP_EL0
	//NO_APP
	.loc	1 1889 36 is_stmt 1
	add	x20, x23, #208
.Ltmp916:
	.loc	1 0 36 is_stmt 0
	add	x8, x23, #736
	str	x8, [sp, #8]
	b	.LBB14_3
.Ltmp917:
.LBB14_1:
	.loc	1 1989 6 is_stmt 1
	bl	get_auto_image2
.Ltmp918:
.LBB14_2:
	.loc	1 2072 3
	mov	x0, x19
	bl	up
.Ltmp919:
	.loc	1 2073 3
	bl	schedule
.Ltmp920:
.LBB14_3:
	.loc	1 1897 3
	mov	x0, x19
.Ltmp921:
	bl	down
.Ltmp922:
	.loc	1 1899 3
	mov	x0, x22
	bl	down
.Ltmp923:
	.loc	1 1904 3
	str	w24, [x21, #48]
.Ltmp924:
	.loc	1 1904 3 is_stmt 0
	//APP
	dmb	ish
	//NO_APP
.Ltmp925:
	.loc	1 1905 21 is_stmt 1
	ldr	w8, [x23, #460]
	.loc	1 1905 3 is_stmt 0
	cmp	w8, #1
	b.eq	.LBB14_11
.Ltmp926:
	cmp	w8, #3
	b.eq	.LBB14_14
.Ltmp927:
	cmp	w8, #4
	b.ne	.LBB14_18
.Ltmp928:
	.loc	1 1907 18 is_stmt 1
	ldr	w8, [x23, #284]
.Ltmp929:
	.loc	1 1907 8 is_stmt 0
	cbz	w8, .LBB14_21
.Ltmp930:
	.loc	1 1910 19 is_stmt 1
	ldr	w8, [x23, #268]
.Ltmp931:
	.loc	1 1908 26
	str	wzr, [x23, #284]
	.loc	1 1909 26
	str	wzr, [x23, #276]
.Ltmp932:
	.loc	1 1910 38
	cbnz	w8, .LBB14_9
.Ltmp933:
	.loc	1 1910 51 is_stmt 0
	ldr	w8, [x23, #272]
.Ltmp934:
	.loc	1 1910 9
	cbz	w8, .LBB14_30
.Ltmp935:
.LBB14_9:
	.loc	1 1588 36 is_stmt 1
	mov	x8, x23
	.loc	1 1586 47
	ldrsw	x9, [x23, #112]
.Ltmp936:
	.loc	1 1588 46
	mov	w10, #24
	.loc	1 1588 66 is_stmt 0
	ldrsw	x2, [x23, #240]
	.loc	1 1588 2
	mov	w3, #1
	.loc	1 1588 36
	ldr	x0, [x8, #40]!
	.loc	1 1588 46
	madd	x25, x9, x10, x8
	ldr	x1, [x25, #32]
	.loc	1 1588 2
	bl	dma_sync_single_for_device
.Ltmp937:
	.loc	1 1589 31 is_stmt 1
	ldr	x0, [x23, #48]
.Ltmp938:
	.loc	170 66 9
	mov	w1, wzr
	mov	w2, wzr
	mov	w3, wzr
	mov	w4, wzr
	.loc	170 66 15 is_stmt 0
	ldr	x8, [x0, #72]
	.loc	170 66 9
	blr	x8
.Ltmp939:
	.loc	1 1590 33 is_stmt 1
	ldr	x0, [x23, #48]
.Ltmp940:
	.loc	170 71 2
	mov	w2, wzr
.Ltmp941:
	.loc	1 1590 44
	ldr	w1, [x25, #32]
.Ltmp942:
	.loc	170 71 8
	ldr	x8, [x0, #80]
	.loc	170 71 2 is_stmt 0
	blr	x8
.Ltmp943:
	.loc	1 1591 30 is_stmt 1
	ldr	x0, [x23, #48]
.Ltmp944:
	.loc	170 86 2
	mov	w1, #1
	.loc	170 86 8 is_stmt 0
	ldr	x8, [x0, #112]
	.loc	170 86 2
	blr	x8
.Ltmp945:
	.loc	1 1592 37 is_stmt 1
	ldr	w8, [x23, #112]
.Ltmp946:
	.loc	1 1913 22
	adrp	x9, ebc_auto_assist_task
.Ltmp947:
	.loc	1 1592 28
	sub	w8, w26, w8
.Ltmp948:
	.loc	1 1913 22
	ldr	x0, [x9, :lo12:ebc_auto_assist_task]
.Ltmp949:
	.loc	1 1592 24
	str	w8, [x23, #112]
.Ltmp950:
	.loc	1 1913 6
	bl	wake_up_process
.Ltmp951:
	.loc	1 0 0 is_stmt 0
	ldrsw	x8, [x23, #112]
	.loc	1 1924 7 is_stmt 1
	mov	x5, x20
	.loc	1 0 0 is_stmt 0
	ldp	x1, x2, [x23, #360]
	.loc	1 1924 7
	mov	w6, #2
	.loc	1 0 0
	add	x8, x23, x8, lsl #3
	.loc	1 1915 17 is_stmt 1
	ldr	w9, [x23, #204]
	.loc	1 0 0 is_stmt 0
	ldp	x3, x4, [x23, #376]
	ldr	x0, [x8, #392]
.Ltmp952:
	.loc	1 1915 10
	cbz	w9, .LBB14_25
.Ltmp953:
	.loc	1 1916 7 is_stmt 1
	bl	get_overlay_image2
.Ltmp954:
	.loc	1 0 7 is_stmt 0
	b	.LBB14_2
.Ltmp955:
.LBB14_11:
	.loc	1 1588 36 is_stmt 1
	mov	x25, x23
	.loc	1 1588 46 is_stmt 0
	mov	w10, #24
	.loc	1 1588 2
	mov	w3, #1
	.loc	1 1588 36
	ldr	x0, [x25, #40]!
.Ltmp956:
	.loc	1 2030 24 is_stmt 1
	ldr	w8, [x25, #240]
.Ltmp957:
	.loc	1 1586 47
	ldrsw	x9, [x25, #72]
	.loc	1 1588 66
	ldrsw	x2, [x25, #200]
.Ltmp958:
	.loc	1 2030 24
	sub	w8, w8, #1
.Ltmp959:
	.loc	1 1588 46
	madd	x27, x9, x10, x25
.Ltmp960:
	.loc	1 2030 24
	str	w8, [x25, #240]
.Ltmp961:
	.loc	1 1588 46
	ldr	x1, [x27, #32]
	.loc	1 1588 2 is_stmt 0
	bl	dma_sync_single_for_device
.Ltmp962:
	.loc	1 1589 31 is_stmt 1
	ldr	x0, [x25, #8]
.Ltmp963:
	.loc	170 66 9
	mov	w1, wzr
	mov	w2, wzr
	mov	w3, wzr
	mov	w4, wzr
	.loc	170 66 15 is_stmt 0
	ldr	x8, [x0, #72]
	.loc	170 66 9
	blr	x8
.Ltmp964:
	.loc	1 1590 33 is_stmt 1
	ldr	x0, [x25, #8]
.Ltmp965:
	.loc	170 71 2
	mov	w2, wzr
.Ltmp966:
	.loc	1 1590 44
	ldr	w1, [x27, #32]
.Ltmp967:
	.loc	170 71 8
	ldr	x8, [x0, #80]
	.loc	170 71 2 is_stmt 0
	blr	x8
.Ltmp968:
	.loc	1 1591 30 is_stmt 1
	ldr	x0, [x25, #8]
.Ltmp969:
	.loc	170 86 2
	mov	w1, #1
	.loc	170 86 8 is_stmt 0
	ldr	x8, [x0, #112]
	.loc	170 86 2
	blr	x8
.Ltmp970:
	.loc	1 1592 37 is_stmt 1
	ldr	w8, [x25, #72]
.Ltmp971:
	.loc	1 2033 20
	adrp	x9, ebc_auto_assist_task
.Ltmp972:
	.loc	1 1592 28
	sub	w8, w26, w8
.Ltmp973:
	.loc	1 2033 20
	ldr	x0, [x9, :lo12:ebc_auto_assist_task]
.Ltmp974:
	.loc	1 1592 24
	str	w8, [x25, #72]
.Ltmp975:
	.loc	1 2033 4
	bl	wake_up_process
.Ltmp976:
	.loc	1 2035 18
	ldr	w8, [x25, #240]
.Ltmp977:
	.loc	1 2035 8 is_stmt 0
	cbz	w8, .LBB14_2
.Ltmp978:
	.loc	1 0 0
	ldrsw	x8, [x23, #112]
	.loc	1 2044 5 is_stmt 1
	mov	x3, x20
	.loc	1 0 0 is_stmt 0
	ldp	x11, x9, [x23, #424]
	.loc	1 2044 5
	mov	w4, #2
	.loc	1 0 0
	add	x8, x23, x8, lsl #3
	.loc	1 2037 15 is_stmt 1
	ldr	w10, [x23, #204]
	.loc	1 0 0 is_stmt 0
	ldr	x2, [x11, #16]
	ldr	x1, [x9, #16]
	ldr	x0, [x8, #392]
.Ltmp979:
	.loc	1 2037 8
	cbz	w10, .LBB14_23
.Ltmp980:
	.loc	1 2038 5 is_stmt 1
	bl	direct_mode_data_change_part2
.Ltmp981:
	.loc	1 0 5 is_stmt 0
	b	.LBB14_2
.Ltmp982:
.LBB14_14:
	.loc	1 1983 18 is_stmt 1
	ldr	w8, [x23, #268]
.Ltmp983:
	.loc	1 1982 25
	str	wzr, [x23, #276]
.Ltmp984:
	.loc	1 1983 37
	cbnz	w8, .LBB14_16
.Ltmp985:
	.loc	1 1983 50 is_stmt 0
	ldr	w8, [x23, #272]
.Ltmp986:
	.loc	1 1983 8
	cbz	w8, .LBB14_26
.Ltmp987:
.LBB14_16:
	.loc	1 1588 36 is_stmt 1
	mov	x8, x23
	.loc	1 1586 47
	ldrsw	x9, [x23, #112]
.Ltmp988:
	.loc	1 1588 46
	mov	w10, #24
	.loc	1 1588 66 is_stmt 0
	ldrsw	x2, [x23, #240]
	.loc	1 1588 2
	mov	w3, #1
	.loc	1 1588 36
	ldr	x0, [x8, #40]!
	.loc	1 1588 46
	madd	x25, x9, x10, x8
	ldr	x1, [x25, #32]
	.loc	1 1588 2
	bl	dma_sync_single_for_device
.Ltmp989:
	.loc	1 1589 31 is_stmt 1
	ldr	x0, [x23, #48]
.Ltmp990:
	.loc	170 66 9
	mov	w1, wzr
	mov	w2, wzr
	mov	w3, wzr
	mov	w4, wzr
	.loc	170 66 15 is_stmt 0
	ldr	x8, [x0, #72]
	.loc	170 66 9
	blr	x8
.Ltmp991:
	.loc	1 1590 33 is_stmt 1
	ldr	x0, [x23, #48]
.Ltmp992:
	.loc	170 71 2
	mov	w2, wzr
.Ltmp993:
	.loc	1 1590 44
	ldr	w1, [x25, #32]
.Ltmp994:
	.loc	170 71 8
	ldr	x8, [x0, #80]
	.loc	170 71 2 is_stmt 0
	blr	x8
.Ltmp995:
	.loc	1 1591 30 is_stmt 1
	ldr	x0, [x23, #48]
.Ltmp996:
	.loc	170 86 2
	mov	w1, #1
	.loc	170 86 8 is_stmt 0
	ldr	x8, [x0, #112]
	.loc	170 86 2
	blr	x8
.Ltmp997:
	.loc	1 1592 37 is_stmt 1
	ldr	w8, [x23, #112]
.Ltmp998:
	.loc	1 1986 21
	adrp	x9, ebc_auto_assist_task
.Ltmp999:
	.loc	1 1592 28
	sub	w8, w26, w8
.Ltmp1000:
	.loc	1 1986 21
	ldr	x0, [x9, :lo12:ebc_auto_assist_task]
.Ltmp1001:
	.loc	1 1592 24
	str	w8, [x23, #112]
.Ltmp1002:
	.loc	1 1986 5
	bl	wake_up_process
.Ltmp1003:
	.loc	1 0 0 is_stmt 0
	ldrsw	x8, [x23, #112]
	.loc	1 1996 6 is_stmt 1
	mov	x4, x20
	.loc	1 0 0 is_stmt 0
	ldp	x1, x2, [x23, #360]
	.loc	1 1996 6
	mov	w5, #2
	.loc	1 0 0
	add	x8, x23, x8, lsl #3
	.loc	1 1988 16 is_stmt 1
	ldr	w9, [x23, #204]
	.loc	1 0 0 is_stmt 0
	ldr	x3, [x23, #376]
	ldr	x0, [x8, #392]
.Ltmp1004:
	.loc	1 1988 9
	cbnz	w9, .LBB14_1
.Ltmp1005:
	.loc	1 1996 6 is_stmt 1
	bl	get_auto_image
.Ltmp1006:
	.loc	1 0 6 is_stmt 0
	b	.LBB14_2
.Ltmp1007:
.LBB14_18:
	.loc	1 1588 36 is_stmt 1
	mov	x25, x23
	.loc	1 1588 46 is_stmt 0
	mov	w10, #24
	.loc	1 1588 2
	mov	w3, #1
	.loc	1 1588 36
	ldr	x0, [x25, #40]!
.Ltmp1008:
	.loc	1 2051 24 is_stmt 1
	ldr	w8, [x25, #240]
.Ltmp1009:
	.loc	1 1586 47
	ldrsw	x9, [x25, #72]
	.loc	1 1588 66
	ldrsw	x2, [x25, #200]
.Ltmp1010:
	.loc	1 2051 24
	sub	w8, w8, #1
.Ltmp1011:
	.loc	1 1588 46
	madd	x27, x9, x10, x25
.Ltmp1012:
	.loc	1 2051 24
	str	w8, [x25, #240]
.Ltmp1013:
	.loc	1 1588 46
	ldr	x1, [x27, #32]
	.loc	1 1588 2 is_stmt 0
	bl	dma_sync_single_for_device
.Ltmp1014:
	.loc	1 1589 31 is_stmt 1
	ldr	x0, [x25, #8]
.Ltmp1015:
	.loc	170 66 9
	mov	w1, wzr
	mov	w2, wzr
	mov	w3, wzr
	mov	w4, wzr
	.loc	170 66 15 is_stmt 0
	ldr	x8, [x0, #72]
	.loc	170 66 9
	blr	x8
.Ltmp1016:
	.loc	1 1590 33 is_stmt 1
	ldr	x0, [x25, #8]
.Ltmp1017:
	.loc	170 71 2
	mov	w2, wzr
.Ltmp1018:
	.loc	1 1590 44
	ldr	w1, [x27, #32]
.Ltmp1019:
	.loc	170 71 8
	ldr	x8, [x0, #80]
	.loc	170 71 2 is_stmt 0
	blr	x8
.Ltmp1020:
	.loc	1 1591 30 is_stmt 1
	ldr	x0, [x25, #8]
.Ltmp1021:
	.loc	170 86 2
	mov	w1, #1
	.loc	170 86 8 is_stmt 0
	ldr	x8, [x0, #112]
	.loc	170 86 2
	blr	x8
.Ltmp1022:
	.loc	1 1592 37 is_stmt 1
	ldr	w8, [x25, #72]
.Ltmp1023:
	.loc	1 2054 20
	adrp	x9, ebc_auto_assist_task
.Ltmp1024:
	.loc	1 1592 28
	sub	w8, w26, w8
.Ltmp1025:
	.loc	1 2054 20
	ldr	x0, [x9, :lo12:ebc_auto_assist_task]
.Ltmp1026:
	.loc	1 1592 24
	str	w8, [x25, #72]
.Ltmp1027:
	.loc	1 2054 4
	bl	wake_up_process
.Ltmp1028:
	.loc	1 2056 18
	ldr	w8, [x25, #240]
.Ltmp1029:
	.loc	1 2056 8 is_stmt 0
	cbz	w8, .LBB14_2
.Ltmp1030:
	.loc	1 0 0
	ldrsw	x8, [x23, #112]
	.loc	1 2065 5 is_stmt 1
	mov	x3, x20
	.loc	1 0 0 is_stmt 0
	ldp	x11, x9, [x23, #424]
	.loc	1 2065 5
	mov	w4, #2
	.loc	1 0 0
	add	x8, x23, x8, lsl #3
	.loc	1 2058 15 is_stmt 1
	ldr	w10, [x23, #204]
	.loc	1 0 0 is_stmt 0
	ldr	x2, [x11, #16]
	ldr	x1, [x9, #16]
	ldr	x0, [x8, #392]
.Ltmp1031:
	.loc	1 2058 8
	cbz	w10, .LBB14_24
.Ltmp1032:
	.loc	1 2059 5 is_stmt 1
	bl	direct_mode_data_change2
.Ltmp1033:
	.loc	1 0 5 is_stmt 0
	b	.LBB14_2
.Ltmp1034:
.LBB14_21:
	.loc	1 1963 5 is_stmt 1
	mov	x0, x22
	bl	up
.Ltmp1035:
	.loc	1 0 0 is_stmt 0
	ldrsw	x8, [x23, #112]
	.loc	1 1973 6 is_stmt 1
	mov	x5, x20
	.loc	1 0 0 is_stmt 0
	ldp	x1, x2, [x23, #360]
	add	x8, x23, x8, lsl #3
	.loc	1 1965 16 is_stmt 1
	ldr	w9, [x23, #204]
	.loc	1 0 0 is_stmt 0
	ldp	x3, x4, [x23, #376]
	ldr	x0, [x8, #392]
.Ltmp1036:
	.loc	1 1965 9
	cbz	w9, .LBB14_29
.Ltmp1037:
	.loc	1 1966 6 is_stmt 1
	bl	get_overlay_image_area2
.Ltmp1038:
	.loc	1 0 6 is_stmt 0
	b	.LBB14_2
.Ltmp1039:
.LBB14_23:
	.loc	1 2044 5 is_stmt 1
	bl	direct_mode_data_change_part
.Ltmp1040:
	.loc	1 0 5 is_stmt 0
	b	.LBB14_2
.Ltmp1041:
.LBB14_24:
	.loc	1 2065 5 is_stmt 1
	bl	direct_mode_data_change
.Ltmp1042:
	.loc	1 0 5 is_stmt 0
	b	.LBB14_2
.Ltmp1043:
.LBB14_25:
	.loc	1 1924 7 is_stmt 1
	bl	get_overlay_image
.Ltmp1044:
	.loc	1 0 7 is_stmt 0
	b	.LBB14_2
.Ltmp1045:
.LBB14_26:
	.loc	1 2004 5 is_stmt 1
	mov	x0, x22
	bl	up
.Ltmp1046:
	.loc	1 2006 20
	ldr	w8, [x23, #820]
.Ltmp1047:
	.loc	1 2006 9 is_stmt 0
	cbz	w8, .LBB14_34
.Ltmp1048:
.LBB14_27:
	.loc	1 0 0
	ldrsw	x8, [x23, #112]
	.loc	1 2019 6 is_stmt 1
	mov	x4, x20
	.loc	1 0 0 is_stmt 0
	ldp	x1, x2, [x23, #360]
	.loc	1 2019 6
	mov	w5, #1
	.loc	1 0 0
	add	x8, x23, x8, lsl #3
	.loc	1 2011 16 is_stmt 1
	ldr	w9, [x23, #204]
	.loc	1 0 0 is_stmt 0
	ldr	x3, [x23, #376]
	ldr	x0, [x8, #392]
.Ltmp1049:
	.loc	1 2011 9
	cbz	w9, .LBB14_42
.Ltmp1050:
	.loc	1 2012 6 is_stmt 1
	bl	get_auto_image2
.Ltmp1051:
	.loc	1 0 6 is_stmt 0
	b	.LBB14_44
.Ltmp1052:
.LBB14_29:
	.loc	1 1973 6 is_stmt 1
	bl	get_overlay_image_area
.Ltmp1053:
	.loc	1 0 6 is_stmt 0
	b	.LBB14_2
.Ltmp1054:
.LBB14_30:
	.loc	1 1933 6 is_stmt 1
	mov	x0, x22
	bl	up
.Ltmp1055:
	.loc	1 1935 21
	ldr	w8, [x23, #820]
.Ltmp1056:
	.loc	1 1935 10 is_stmt 0
	cbnz	w8, .LBB14_32
.Ltmp1057:
	.loc	1 1938 28 is_stmt 1
	ldr	x8, [x23, #432]
	.loc	1 1936 7
	mov	x5, x20
	.loc	1 1939 28
	ldp	x3, x4, [x23, #376]
	.loc	1 1936 42
	ldr	x0, [x23, #360]
	.loc	1 1937 28
	ldr	x1, [x23, #224]
	.loc	1 1938 42
	ldr	x2, [x8, #16]
	.loc	1 1936 7
	bl	refresh_new_image
.Ltmp1058:
.LBB14_32:
	.loc	1 0 0 is_stmt 0
	ldrsw	x8, [x23, #112]
	.loc	1 1951 7 is_stmt 1
	mov	x5, x20
	.loc	1 0 0 is_stmt 0
	ldp	x1, x2, [x23, #360]
	.loc	1 1951 7
	mov	w6, #1
	.loc	1 0 0
	add	x8, x23, x8, lsl #3
	.loc	1 1942 17 is_stmt 1
	ldr	w9, [x23, #204]
	.loc	1 0 0 is_stmt 0
	ldp	x3, x4, [x23, #376]
	ldr	x0, [x8, #392]
.Ltmp1059:
	.loc	1 1942 10
	cbz	w9, .LBB14_43
.Ltmp1060:
	.loc	1 1943 7 is_stmt 1
	bl	get_overlay_image2
.Ltmp1061:
	.loc	1 0 7 is_stmt 0
	b	.LBB14_44
.Ltmp1062:
.LBB14_34:
	.loc	1 553 20 is_stmt 1
	ldr	w8, [x23, #304]
	.loc	1 554 21
	ldr	w9, [x23, #300]
.Ltmp1063:
	.loc	1 553 26
	add	w10, w8, #7
	cmp	w8, #0
	csel	w13, w10, w8, lt
.Ltmp1064:
	.loc	1 555 2
	cmp	w9, #1
	b.lt	.LBB14_27
.Ltmp1065:
	.loc	1 2008 28
	ldr	x12, [x23, #432]
	mov	w10, wzr
	.loc	1 2009 28
	ldr	x11, [x23, #376]
	.loc	1 0 0 is_stmt 0
	asr	w13, w13, #3
	.loc	1 2007 46 is_stmt 1
	ldr	x14, [x23, #360]
	.loc	1 2008 42
	ldr	x12, [x12, #16]
	b	.LBB14_37
.Ltmp1066:
.LBB14_36:
	.loc	1 555 27
	add	w10, w10, #1
.Ltmp1067:
	.loc	1 555 2 is_stmt 0
	cmp	w10, w9
	b.eq	.LBB14_27
.Ltmp1068:
.LBB14_37:
	.loc	1 556 3 is_stmt 1
	cmp	w8, #8
	b.lt	.LBB14_36
.Ltmp1069:
	.loc	1 0 3 is_stmt 0
	mov	w15, w13
	b	.LBB14_40
.Ltmp1070:
.LBB14_39:
	add	x14, x14, #8
.Ltmp1071:
	.loc	1 556 17
	subs	w15, w15, #1
.Ltmp1072:
	.loc	1 556 3
	b.eq	.LBB14_36
.Ltmp1073:
.LBB14_40:
	.loc	1 558 20 is_stmt 1
	ldr	x16, [x12], #8
.Ltmp1074:
	.loc	1 559 21
	ldr	x17, [x14]
.Ltmp1075:
	.loc	1 557 23
	ldr	x0, [x11], #8
.Ltmp1076:
	.loc	1 562 8
	cmp	x16, x17
	b.eq	.LBB14_39
.Ltmp1077:
	.loc	1 567 8
	tst	x0, #0xff
	csel	x1, x28, xzr, eq
.Ltmp1078:
	.loc	1 571 8
	tst	x0, #0xff00
	orr	x2, x1, #0xff00
	csel	x1, x2, x1, eq
.Ltmp1079:
	.loc	1 575 8
	tst	x0, #0xff0000
	orr	x2, x1, #0xff0000
	csel	x1, x2, x1, eq
.Ltmp1080:
	.loc	1 579 8
	tst	x0, #0xff000000
	orr	x2, x1, #0xff000000
	csel	x1, x2, x1, eq
.Ltmp1081:
	.loc	1 583 8
	tst	x0, #0xff00000000
	orr	x2, x1, #0xff00000000
	csel	x1, x2, x1, eq
.Ltmp1082:
	.loc	1 587 8
	tst	x0, #0xff0000000000
	orr	x2, x1, #0xff0000000000
	csel	x1, x2, x1, eq
.Ltmp1083:
	.loc	1 591 8
	tst	x0, #0xff000000000000
	orr	x2, x1, #0xff000000000000
	.loc	1 595 8
	lsr	x0, x0, #56
.Ltmp1084:
	.loc	1 591 8
	csel	x1, x2, x1, eq
.Ltmp1085:
	.loc	1 595 8
	cmp	x0, #0
	orr	x2, x1, #0xff00000000000000
	csel	x0, x2, x1, eq
.Ltmp1086:
	.loc	1 598 19
	bic	x17, x17, x0
.Ltmp1087:
	.loc	1 599 36
	and	x16, x0, x16
.Ltmp1088:
	.loc	1 599 19 is_stmt 0
	orr	x16, x17, x16
.Ltmp1089:
	.loc	1 600 17 is_stmt 1
	str	x16, [x14]
	b	.LBB14_39
.Ltmp1090:
.LBB14_42:
	.loc	1 2019 6
	bl	get_auto_image
.Ltmp1091:
	.loc	1 0 6 is_stmt 0
	b	.LBB14_44
.Ltmp1092:
.LBB14_43:
	.loc	1 1951 7 is_stmt 1
	bl	get_overlay_image
.Ltmp1093:
.LBB14_44:
	.loc	1 0 0 is_stmt 0
	adrp	x8, jiffies
	str	w26, [x23, #276]
	ldr	x8, [x8, :lo12:jiffies]
	ldr	x0, [sp, #8]
	add	x1, x8, #1
	bl	mod_timer
.Ltmp1094:
	b	.LBB14_2
.Ltmp1095:
.Lfunc_end14:
	.size	ebc_auto_tast_function, .Lfunc_end14-ebc_auto_tast_function
	.cfi_endproc
	.file	202 "/home/lyx/rk-android14/kernel-6.1" "./include/linux/dma-mapping.h"

	.p2align	2
	.type	ebc_auto_assist_tast_function,@function
ebc_auto_assist_tast_function:
.Lfunc_begin15:
	.loc	1 1797 0 is_stmt 1
	.cfi_startproc
	str	x30, [x18], #8
	.cfi_escape 0x16, 0x12, 0x02, 0x82, 0x78
	stp	x29, x30, [sp, #-64]!
	stp	x24, x23, [sp, #16]
	mov	x29, sp
	stp	x22, x21, [sp, #32]
	stp	x20, x19, [sp, #48]
	.cfi_def_cfa w29, 64
	.cfi_offset w19, -8
	.cfi_offset w20, -16
	.cfi_offset w21, -24
	.cfi_offset w22, -32
	.cfi_offset w23, -40
	.cfi_offset w24, -48
	.cfi_offset w30, -56
	.cfi_offset w29, -64
.Ltmp1096:
	.loc	1 1798 20 prologue_end
	adrp	x8, global_ebc
	adrp	x19, ebc_auto_assist_thread_sem
	adrp	x21, ebc_assist_finished_flag_sem
	add	x19, x19, :lo12:ebc_auto_assist_thread_sem
	mov	w23, #2
	add	x21, x21, :lo12:ebc_assist_finished_flag_sem
	ldr	x22, [x8, :lo12:global_ebc]
.Ltmp1097:
	.loc	1 0 20 is_stmt 0
	//APP
	mrs	x24, SP_EL0
	//NO_APP
	.loc	1 1800 36 is_stmt 1
	add	x20, x22, #208
.Ltmp1098:
	.loc	1 0 36 is_stmt 0
	b	.LBB15_4
.Ltmp1099:
.LBB15_1:
	ldrsw	x8, [x22, #112]
	.loc	1 1836 5 is_stmt 1
	mov	x4, x20
	.loc	1 0 0 is_stmt 0
	ldp	x1, x2, [x22, #360]
	.loc	1 1836 5
	mov	w5, #3
	.loc	1 0 0
	add	x8, x22, x8, lsl #3
	.loc	1 1828 15 is_stmt 1
	ldr	w9, [x22, #204]
	.loc	1 0 0 is_stmt 0
	ldr	x3, [x22, #376]
	ldr	x0, [x8, #392]
.Ltmp1100:
	.loc	1 1828 8
	cbz	w9, .LBB15_15
.Ltmp1101:
	.loc	1 1829 5 is_stmt 1
	bl	get_auto_image2
.Ltmp1102:
.LBB15_3:
	.loc	1 1876 3
	mov	x0, x21
	bl	up
.Ltmp1103:
	.loc	1 1877 3
	mov	x0, x19
	bl	up
.Ltmp1104:
	.loc	1 1878 3
	bl	schedule
.Ltmp1105:
.LBB15_4:
	.loc	1 1803 3
	mov	x0, x19
.Ltmp1106:
	bl	down
.Ltmp1107:
	.loc	1 1807 3
	str	w23, [x24, #48]
.Ltmp1108:
	.loc	1 1807 3 is_stmt 0
	//APP
	dmb	ish
	//NO_APP
.Ltmp1109:
	.loc	1 1808 21 is_stmt 1
	ldr	w8, [x22, #460]
	.loc	1 1808 3 is_stmt 0
	cmp	w8, #1
	b.eq	.LBB15_9
.Ltmp1110:
	cmp	w8, #3
	b.eq	.LBB15_1
.Ltmp1111:
	cmp	w8, #4
	b.ne	.LBB15_12
.Ltmp1112:
	.loc	1 0 0
	ldrsw	x8, [x22, #112]
	.loc	1 1819 5 is_stmt 1
	mov	x5, x20
	.loc	1 0 0 is_stmt 0
	ldp	x1, x2, [x22, #360]
	.loc	1 1819 5
	mov	w6, #3
	.loc	1 0 0
	add	x8, x22, x8, lsl #3
	.loc	1 1810 15 is_stmt 1
	ldr	w9, [x22, #204]
	.loc	1 0 0 is_stmt 0
	ldp	x3, x4, [x22, #376]
	ldr	x0, [x8, #392]
.Ltmp1113:
	.loc	1 1810 8
	cbz	w9, .LBB15_16
.Ltmp1114:
	.loc	1 1811 5 is_stmt 1
	bl	get_overlay_image2
.Ltmp1115:
	.loc	1 0 5 is_stmt 0
	b	.LBB15_3
.Ltmp1116:
.LBB15_9:
	.loc	1 1844 18 is_stmt 1
	ldr	w8, [x22, #280]
.Ltmp1117:
	.loc	1 1844 8 is_stmt 0
	cbz	w8, .LBB15_3
.Ltmp1118:
	.loc	1 0 0
	ldrsw	x8, [x22, #112]
	.loc	1 1853 5 is_stmt 1
	mov	x3, x20
	.loc	1 0 0 is_stmt 0
	ldp	x11, x9, [x22, #424]
	.loc	1 1853 5
	mov	w4, #3
	.loc	1 0 0
	add	x8, x22, x8, lsl #3
	.loc	1 1846 15 is_stmt 1
	ldr	w10, [x22, #204]
	.loc	1 0 0 is_stmt 0
	ldr	x2, [x11, #16]
	ldr	x1, [x9, #16]
	ldr	x0, [x8, #392]
.Ltmp1119:
	.loc	1 1846 8
	cbz	w10, .LBB15_17
.Ltmp1120:
	.loc	1 1847 5 is_stmt 1
	bl	direct_mode_data_change_part2
.Ltmp1121:
	.loc	1 0 5 is_stmt 0
	b	.LBB15_3
.Ltmp1122:
.LBB15_12:
	.loc	1 1860 18 is_stmt 1
	ldr	w8, [x22, #280]
.Ltmp1123:
	.loc	1 1860 8 is_stmt 0
	cbz	w8, .LBB15_3
.Ltmp1124:
	.loc	1 0 0
	ldrsw	x8, [x22, #112]
	.loc	1 1869 5 is_stmt 1
	mov	x3, x20
	.loc	1 0 0 is_stmt 0
	ldp	x11, x9, [x22, #424]
	.loc	1 1869 5
	mov	w4, #3
	.loc	1 0 0
	add	x8, x22, x8, lsl #3
	.loc	1 1862 15 is_stmt 1
	ldr	w10, [x22, #204]
	.loc	1 0 0 is_stmt 0
	ldr	x2, [x11, #16]
	ldr	x1, [x9, #16]
	ldr	x0, [x8, #392]
.Ltmp1125:
	.loc	1 1862 8
	cbz	w10, .LBB15_18
.Ltmp1126:
	.loc	1 1863 5 is_stmt 1
	bl	direct_mode_data_change2
.Ltmp1127:
	.loc	1 0 5 is_stmt 0
	b	.LBB15_3
.Ltmp1128:
.LBB15_15:
	.loc	1 1836 5 is_stmt 1
	bl	get_auto_image
.Ltmp1129:
	.loc	1 0 5 is_stmt 0
	b	.LBB15_3
.Ltmp1130:
.LBB15_16:
	.loc	1 1819 5 is_stmt 1
	bl	get_overlay_image
.Ltmp1131:
	.loc	1 0 5 is_stmt 0
	b	.LBB15_3
.Ltmp1132:
.LBB15_17:
	.loc	1 1853 5 is_stmt 1
	bl	direct_mode_data_change_part
.Ltmp1133:
	.loc	1 0 5 is_stmt 0
	b	.LBB15_3
.Ltmp1134:
.LBB15_18:
	.loc	1 1869 5 is_stmt 1
	bl	direct_mode_data_change
.Ltmp1135:
	.loc	1 0 5 is_stmt 0
	b	.LBB15_3
.Ltmp1136:
.Lfunc_end15:
	.size	ebc_auto_assist_tast_function, .Lfunc_end15-ebc_auto_assist_tast_function
	.cfi_endproc

	.p2align	2
	.type	ebc_thread,@function
ebc_thread:
.Lfunc_begin16:
	.loc	1 2363 0 is_stmt 1
	.cfi_startproc
	sub	sp, sp, #208
	str	x30, [x18], #8
	.cfi_escape 0x16, 0x12, 0x02, 0x82, 0x78
	stp	x29, x30, [sp, #112]
	add	x29, sp, #112
	stp	x28, x27, [sp, #128]
	stp	x26, x25, [sp, #144]
	stp	x24, x23, [sp, #160]
	stp	x22, x21, [sp, #176]
	stp	x20, x19, [sp, #192]
	.cfi_def_cfa w29, 96
	.cfi_offset w19, -8
	.cfi_offset w20, -16
	.cfi_offset w21, -24
	.cfi_offset w22, -32
	.cfi_offset w23, -40
	.cfi_offset w24, -48
	.cfi_offset w25, -56
	.cfi_offset w26, -64
	.cfi_offset w27, -72
	.cfi_offset w28, -80
	.cfi_offset w30, -88
	.cfi_offset w29, -96
	str	wzr, [sp, #36]
	mrs	x8, SP_EL0
	ldr	x8, [x8, #1584]
.Ltmp1137:
	.loc	1 2364 20 prologue_end
	adrp	x9, global_ebc
	mov	w22, wzr
	mov	w26, #255
	mov	w20, #-268435456
	mov	x28, #1030792151040
	stur	x8, [x29, #-8]
.Ltmp1138:
	.loc	1 0 20 is_stmt 0
	mov	x23, #263882790666240
	.loc	1 2364 20
	ldr	x19, [x9, :lo12:global_ebc]
.Ltmp1139:
	.loc	1 0 20
	mov	x25, #67553994410557440
	.loc	1 2365 36 is_stmt 1
	add	x9, x19, #208
.Ltmp1140:
	.loc	1 0 36 is_stmt 0
	add	x8, x19, #312
	add	x24, x19, #260
	stp	x8, x9, [sp, #48]
	add	x8, x19, #40
	add	x9, x19, #464
	str	x8, [sp, #24]
	add	x8, x19, #680
	stp	x8, x9, [sp]
	add	x8, x19, #736
	str	x8, [sp, #40]
	b	.LBB16_3
.Ltmp1141:
.LBB16_1:
	.loc	1 2818 24 is_stmt 1
	mov	w8, #1
	str	w8, [x19, #676]
.Ltmp1142:
.LBB16_2:
	.loc	1 2820 39
	ldr	x8, [x19, #432]
	mov	w22, wzr
	.loc	1 2820 27 is_stmt 0
	str	x8, [x19, #424]
.Ltmp1143:
.LBB16_3:
	.loc	1 2375 17 is_stmt 1
	ldr	w8, [x19, #800]
	.loc	1 2375 30 is_stmt 0
	cbz	w8, .LBB16_5
.Ltmp1144:
	.loc	1 2375 40
	ldr	w8, [x19, #200]
.Ltmp1145:
	.loc	1 2375 7
	cbz	w8, .LBB16_392
.Ltmp1146:
.LBB16_5:
	.loc	1 2381 23 is_stmt 1
	cbnz	w22, .LBB16_7
.Ltmp1147:
	.loc	1 2381 36 is_stmt 0
	ldr	w8, [x19, #820]
.Ltmp1148:
	.loc	1 2381 7
	cbz	w8, .LBB16_39
.Ltmp1149:
.LBB16_7:
	.loc	1 2427 17 is_stmt 1
	ldr	w8, [x19, #812]
	.loc	1 2427 41 is_stmt 0
	cbz	w8, .LBB16_10
.Ltmp1150:
	.loc	1 2427 54
	ldr	w8, [x19, #808]
	.loc	1 2427 72
	cbnz	w8, .LBB16_10
.Ltmp1151:
	.loc	1 2427 85
	ldr	w8, [x19, #820]
.Ltmp1152:
	.loc	1 2427 7
	cbz	w8, .LBB16_22
.Ltmp1153:
.LBB16_10:
	.loc	1 2428 10 is_stmt 1
	bl	ebc_dsp_buf_get
.Ltmp1154:
	.loc	1 2429 7
	cbz	x0, .LBB16_22
.Ltmp1155:
	.loc	1 0 0 is_stmt 0
	ldr	w8, [x0, #40]
.Ltmp1156:
	mov	x21, x0
.Ltmp1157:
	.loc	1 2430 15 is_stmt 1
	ldr	w9, [x19, #200]
.Ltmp1158:
	.loc	1 2467 9
	cmp	w8, #20
.Ltmp1159:
	.loc	1 2430 8
	cbz	w9, .LBB16_24
.Ltmp1160:
	.loc	1 2467 9
	b.eq	.LBB16_252
.Ltmp1161:
	cmp	w8, #19
	b.eq	.LBB16_253
.Ltmp1162:
	cmp	w8, #18
	b.eq	.LBB16_257
.Ltmp1163:
	.loc	1 2500 16
	adrp	x8, resume_count_start
	ldrb	w8, [x8, :lo12:resume_count_start]
.Ltmp1164:
	.loc	1 2500 16 is_stmt 0
	cmp	w8, #1
	b.ne	.LBB16_27
.Ltmp1165:
	.loc	1 0 16
	adrp	x10, resume_frame_count
.Ltmp1166:
	.loc	1 2501 28 is_stmt 1
	ldr	w8, [x10, :lo12:resume_frame_count]
	add	w9, w8, #1
.Ltmp1167:
	.loc	1 2501 10 is_stmt 0
	cmp	w8, #6
.Ltmp1168:
	.loc	1 2501 28
	str	w9, [x10, :lo12:resume_frame_count]
.Ltmp1169:
	.loc	1 2501 10
	b.lt	.LBB16_18
.Ltmp1170:
	.loc	1 2502 26 is_stmt 1
	adrp	x8, resume_count_start
	strb	wzr, [x8, :lo12:resume_count_start]
.Ltmp1171:
.LBB16_18:
	.loc	1 2278 23
	ldrsw	x9, [x19, #236]
.Ltmp1172:
	.loc	1 0 23 is_stmt 0
	add	w8, w9, #7
	cmp	w9, #0
	csel	w10, w8, w9, lt
.Ltmp1173:
	.loc	1 2281 2 is_stmt 1
	cmp	w9, #8
	b.lt	.LBB16_85
.Ltmp1174:
	.loc	1 0 2 is_stmt 0
	mov	w11, #26215
	mov	w8, wzr
	movk	w11, #26214, lsl #16
	asr	w10, w10, #3
	mul	x9, x9, x11
.Ltmp1175:
	lsr	x11, x9, #63
	asr	x9, x9, #34
	add	w9, w9, w11
.Ltmp1176:
	.loc	1 2273 30 is_stmt 1
	ldr	x11, [x21, #16]
.Ltmp1177:
.LBB16_20:
	.loc	1 2282 21
	ldr	x12, [x11]
.Ltmp1178:
	.loc	1 2283 23
	cmp	x12, #0
.Ltmp1179:
	.loc	1 2283 7 is_stmt 0
	cinc	w8, w8, ne
.Ltmp1180:
	.loc	1 2285 7 is_stmt 1
	cmp	w9, w8, lsl #3
	b.lt	.LBB16_27
.Ltmp1181:
	.loc	1 2282 30
	add	x11, x11, #8
.Ltmp1182:
	.loc	1 2281 16
	subs	w10, w10, #1
	b.ne	.LBB16_20
	b	.LBB16_85
.Ltmp1183:
.LBB16_22:
	.loc	1 2825 18
	ldr	w8, [x19, #308]
.Ltmp1184:
	.loc	1 2825 8 is_stmt 0
	cbz	w8, .LBB16_31
.Ltmp1185:
	.loc	1 2830 34 is_stmt 1
	str	wzr, [x19, #308]
	b	.LBB16_3
.Ltmp1186:
.LBB16_24:
	.loc	1 2431 42
	b.eq	.LBB16_26
.Ltmp1187:
	cmp	w8, #18
	b.ne	.LBB16_78
.Ltmp1188:
.LBB16_26:
	.loc	1 2432 25
	adrp	x8, resume_count_start
	strb	wzr, [x8, :lo12:resume_count_start]
.Ltmp1189:
.LBB16_27:
	.loc	1 0 0 is_stmt 0
	ldr	w8, [x21, #64]
	.loc	1 2511 8 is_stmt 1
	cbz	w22, .LBB16_49
.Ltmp1190:
	.loc	1 2513 9
	cbz	w8, .LBB16_45
.Ltmp1191:
	.loc	1 2516 21
	ldr	w9, [x21, #40]
.Ltmp1192:
	.loc	1 2516 16 is_stmt 0
	cmp	w9, #16
	b.ne	.LBB16_46
.Ltmp1193:
	.loc	1 2517 20 is_stmt 1
	mov	w9, #21
	str	w9, [x21, #40]
	b	.LBB16_49
.Ltmp1194:
.LBB16_31:
	.loc	1 2826 5
	sub	x0, x29, #48
	mov	w1, wzr
	stp	xzr, xzr, [x29, #-24]
	stp	xzr, xzr, [x29, #-40]
	stur	xzr, [x29, #-48]
.Ltmp1195:
	bl	init_wait_entry
.Ltmp1196:
	.loc	1 2826 5 is_stmt 0
	adrp	x0, ebc_thread_wq
	sub	x1, x29, #48
	add	x0, x0, :lo12:ebc_thread_wq
	mov	w2, #1
	bl	prepare_to_wait_event
.Ltmp1197:
	.loc	1 2826 5
	ldr	w8, [x19, #308]
.Ltmp1198:
	.loc	1 2826 5
	cbz	w8, .LBB16_86
.Ltmp1199:
.LBB16_32:
	.loc	1 2826 5
	adrp	x0, ebc_thread_wq
	sub	x1, x29, #48
	add	x0, x0, :lo12:ebc_thread_wq
	bl	finish_wait
.Ltmp1200:
	.loc	1 2827 19 is_stmt 1
	ldr	w8, [x19, #308]
.Ltmp1201:
	.loc	1 2827 9 is_stmt 0
	cbnz	w8, .LBB16_3
.Ltmp1202:
.LBB16_33:
	.loc	1 2834 23 is_stmt 1
	ldr	w8, [x24]
.Ltmp1203:
	.loc	1 2834 8 is_stmt 0
	cmp	w8, #1
	b.ne	.LBB16_193
.Ltmp1204:
	.loc	1 2835 5 is_stmt 1
	sub	x0, x29, #48
	mov	w1, wzr
	stp	xzr, xzr, [x29, #-24]
	stp	xzr, xzr, [x29, #-40]
	stur	xzr, [x29, #-48]
.Ltmp1205:
	bl	init_wait_entry
.Ltmp1206:
.LBB16_35:
	.loc	1 2835 5 is_stmt 0
	adrp	x0, ebc_thread_wq
	sub	x1, x29, #48
	add	x0, x0, :lo12:ebc_thread_wq
	mov	w2, #1
	bl	prepare_to_wait_event
.Ltmp1207:
	.loc	1 2835 5
	ldr	w8, [x24]
.Ltmp1208:
	cbz	w8, .LBB16_203
.Ltmp1209:
	ldr	w8, [x19, #308]
.Ltmp1210:
	.loc	1 2835 5
	cbnz	w8, .LBB16_203
.Ltmp1211:
	cbnz	x0, .LBB16_204
.Ltmp1212:
	bl	schedule
.Ltmp1213:
	.loc	1 0 5
	b	.LBB16_35
.Ltmp1214:
.LBB16_39:
	.loc	1 2382 10 is_stmt 1
	bl	ebc_osd_buf_get
.Ltmp1215:
	.loc	1 2383 7
	cbz	x0, .LBB16_7
.Ltmp1216:
	.loc	1 0 0 is_stmt 0
	mov	x21, x0
.Ltmp1217:
	.loc	1 2384 18 is_stmt 1
	ldr	w8, [x19, #792]
	.loc	1 2384 35 is_stmt 0
	cbnz	w8, .LBB16_261
.Ltmp1218:
	.loc	1 2384 48
	ldr	w8, [x19, #796]
	.loc	1 2384 62
	cbnz	w8, .LBB16_261
.Ltmp1219:
	.loc	1 2384 75
	ldr	w8, [x19, #800]
.Ltmp1220:
	.loc	1 2384 8
	cbnz	w8, .LBB16_261
.Ltmp1221:
	.loc	1 2390 18 is_stmt 1
	ldr	w8, [x19, #460]
	.loc	1 2390 35 is_stmt 0
	sub	w9, w8, #1
	cmp	w9, #2
	b.hs	.LBB16_112
.Ltmp1222:
	.loc	1 2391 48 is_stmt 1
	ldr	x8, [x19, #424]
	.loc	1 2391 22 is_stmt 0
	ldr	x0, [x19, #368]
	.loc	1 2391 83
	ldrsw	x2, [x19, #236]
	.loc	1 2391 62
	ldr	x1, [x8, #16]
	.loc	1 2391 5
	bl	memcpy
.Ltmp1223:
	.loc	1 2392 48 is_stmt 1
	ldr	x8, [x19, #432]
	.loc	1 2392 22 is_stmt 0
	ldr	x0, [x19, #360]
	.loc	1 2392 83
	ldrsw	x2, [x19, #236]
	.loc	1 2392 62
	ldr	x1, [x8, #16]
	.loc	1 2392 5
	bl	memcpy
.Ltmp1224:
	.loc	1 0 5
	b	.LBB16_114
.Ltmp1225:
.LBB16_45:
	mov	w8, #21
	b	.LBB16_48
.Ltmp1226:
.LBB16_46:
	.loc	1 2518 16 is_stmt 1
	cmp	w8, #2
	b.ne	.LBB16_49
.Ltmp1227:
	.loc	1 0 16 is_stmt 0
	mov	w8, #4
.Ltmp1228:
.LBB16_48:
	mov	x22, x21
	mov	w9, #1
	str	w9, [x22, #64]!
	stur	w8, [x22, #-24]
	b	.LBB16_50
.Ltmp1229:
.LBB16_49:
	.loc	1 2525 13 is_stmt 1
	add	x22, x21, #64
.Ltmp1230:
	.loc	1 2525 8 is_stmt 0
	cmp	w8, #1
	b.ne	.LBB16_57
.Ltmp1231:
.LBB16_50:
	.loc	1 2624 23 is_stmt 1
	ldr	w8, [x19, #676]
.Ltmp1232:
	.loc	1 2624 8 is_stmt 0
	cbnz	w8, .LBB16_52
.Ltmp1233:
	.loc	1 2625 28 is_stmt 1
	str	x21, [x19, #424]
.Ltmp1234:
.LBB16_52:
	.loc	1 2627 17
	ldr	w2, [x21, #40]
	.loc	1 2627 4 is_stmt 0
	cmp	w2, #23
	b.hi	.LBB16_295
.Ltmp1235:
	.loc	1 0 4
	mov	w8, #1
	mov	w9, #1
	lsl	w8, w8, w2
	movk	w9, #192, lsl #16
	tst	w8, w9
	b.eq	.LBB16_76
.Ltmp1236:
	.loc	1 2632 19 is_stmt 1
	ldr	w8, [x19, #460]
.Ltmp1237:
	.loc	1 2631 28
	str	x21, [x19, #432]
.Ltmp1238:
	.loc	1 2632 36
	sub	w9, w8, #1
	cmp	w9, #2
	b.hs	.LBB16_60
.Ltmp1239:
	.loc	1 2633 49
	ldr	x8, [x19, #424]
	.loc	1 2633 23 is_stmt 0
	ldr	x0, [x19, #368]
	.loc	1 2633 84
	ldrsw	x2, [x19, #236]
	.loc	1 2633 63
	ldr	x1, [x8, #16]
	.loc	1 2633 6
	bl	memcpy
.Ltmp1240:
.LBB16_56:
	.loc	1 0 0
	ldr	x8, [x19, #432]
	ldr	x0, [x19, #360]
	ldrsw	x2, [x19, #236]
	ldr	x1, [x8, #16]
	bl	memcpy
.Ltmp1241:
	b	.LBB16_72
.Ltmp1242:
.LBB16_57:
	.loc	1 2526 19 is_stmt 1
	ldr	w9, [x19, #804]
	.loc	1 0 0 is_stmt 0
	ldr	w8, [x19, #460]
	.loc	1 2526 34
	cbz	w9, .LBB16_90
.Ltmp1243:
	.loc	1 2527 37 is_stmt 1
	sub	w9, w8, #1
	cmp	w9, #2
	b.hs	.LBB16_92
.Ltmp1244:
	.loc	1 2528 50
	ldr	x8, [x19, #424]
	.loc	1 2528 24 is_stmt 0
	ldr	x0, [x19, #368]
	.loc	1 2528 85
	ldrsw	x2, [x19, #236]
	.loc	1 2528 64
	ldr	x1, [x8, #16]
	.loc	1 2528 7
	bl	memcpy
.Ltmp1245:
	.loc	1 2529 50 is_stmt 1
	ldr	x8, [x19, #432]
	.loc	1 2529 24 is_stmt 0
	ldr	x0, [x19, #360]
	.loc	1 2529 85
	ldrsw	x2, [x19, #236]
	.loc	1 2529 64
	ldr	x1, [x8, #16]
	.loc	1 2529 7
	bl	memcpy
.Ltmp1246:
	.loc	1 2536 15 is_stmt 1
	ldr	w8, [x22]
	cbnz	w8, .LBB16_102
	b	.LBB16_95
.Ltmp1247:
.LBB16_60:
	.loc	1 2632 36
	cmp	w8, #4
	b.ne	.LBB16_62
.Ltmp1248:
	.loc	1 2635 59
	ldr	w8, [x24]
.Ltmp1249:
	.loc	1 2635 16 is_stmt 0
	cbnz	w8, .LBB16_306
.Ltmp1250:
.LBB16_62:
	.loc	1 2641 62 is_stmt 1
	ldr	x8, [x19, #424]
	.loc	1 2641 40 is_stmt 0
	ldr	w9, [x21, #40]
	.loc	1 2641 76
	ldr	w8, [x8, #40]
	.loc	1 2641 85
	cmp	w9, w8
	b.eq	.LBB16_64
.Ltmp1251:
	.loc	1 2641 98
	ldr	w8, [x24]
.Ltmp1252:
	.loc	1 2641 16
	cbnz	w8, .LBB16_311
.Ltmp1253:
.LBB16_64:
	.loc	1 553 20 is_stmt 1
	ldr	w8, [x19, #304]
	.loc	1 554 21
	ldr	w9, [x19, #300]
.Ltmp1254:
	.loc	1 553 26
	add	w10, w8, #7
	cmp	w8, #0
	csel	w13, w10, w8, lt
.Ltmp1255:
	.loc	1 555 2
	cmp	w9, #1
	b.lt	.LBB16_72
.Ltmp1256:
	.loc	1 0 2 is_stmt 0
	mov	w10, wzr
	.loc	1 2650 29 is_stmt 1
	ldr	x11, [x19, #376]
	.loc	1 2649 43
	ldr	x12, [x21, #16]
	.loc	1 0 0 is_stmt 0
	asr	w13, w13, #3
	.loc	1 2648 46 is_stmt 1
	ldr	x14, [x19, #360]
	b	.LBB16_67
.Ltmp1257:
.LBB16_66:
	.loc	1 555 27
	add	w10, w10, #1
.Ltmp1258:
	.loc	1 555 2 is_stmt 0
	cmp	w10, w9
	b.eq	.LBB16_72
.Ltmp1259:
.LBB16_67:
	.loc	1 556 3 is_stmt 1
	cmp	w8, #8
	b.lt	.LBB16_66
.Ltmp1260:
	.loc	1 0 3 is_stmt 0
	mov	w15, w13
	b	.LBB16_70
.Ltmp1261:
.LBB16_69:
	add	x14, x14, #8
.Ltmp1262:
	.loc	1 556 17
	subs	w15, w15, #1
.Ltmp1263:
	.loc	1 556 3
	b.eq	.LBB16_66
.Ltmp1264:
.LBB16_70:
	.loc	1 558 20 is_stmt 1
	ldr	x16, [x12], #8
.Ltmp1265:
	.loc	1 559 21
	ldr	x17, [x14]
.Ltmp1266:
	.loc	1 557 23
	ldr	x0, [x11], #8
.Ltmp1267:
	.loc	1 562 8
	cmp	x16, x17
	b.eq	.LBB16_69
.Ltmp1268:
	.loc	1 567 8
	tst	x0, #0xff
	csel	x1, x26, xzr, eq
.Ltmp1269:
	.loc	1 571 8
	tst	x0, #0xff00
	orr	x2, x1, #0xff00
	csel	x1, x2, x1, eq
.Ltmp1270:
	.loc	1 575 8
	tst	x0, #0xff0000
	orr	x2, x1, #0xff0000
	csel	x1, x2, x1, eq
.Ltmp1271:
	.loc	1 579 8
	tst	x0, #0xff000000
	orr	x2, x1, #0xff000000
	csel	x1, x2, x1, eq
.Ltmp1272:
	.loc	1 583 8
	tst	x0, #0xff00000000
	orr	x2, x1, #0xff00000000
	csel	x1, x2, x1, eq
.Ltmp1273:
	.loc	1 587 8
	tst	x0, #0xff0000000000
	orr	x2, x1, #0xff0000000000
	csel	x1, x2, x1, eq
.Ltmp1274:
	.loc	1 591 8
	tst	x0, #0xff000000000000
	orr	x2, x1, #0xff000000000000
	.loc	1 595 8
	lsr	x0, x0, #56
.Ltmp1275:
	.loc	1 591 8
	csel	x1, x2, x1, eq
.Ltmp1276:
	.loc	1 595 8
	cmp	x0, #0
	orr	x2, x1, #0xff00000000000000
	csel	x0, x2, x1, eq
.Ltmp1277:
	.loc	1 598 19
	bic	x17, x17, x0
.Ltmp1278:
	.loc	1 599 36
	and	x16, x0, x16
.Ltmp1279:
	.loc	1 599 19 is_stmt 0
	orr	x16, x17, x16
.Ltmp1280:
	.loc	1 600 17 is_stmt 1
	str	x16, [x14]
	b	.LBB16_69
.Ltmp1281:
.LBB16_72:
	.loc	1 2654 24
	ldr	w8, [x19, #260]
.Ltmp1282:
	.loc	1 2653 24
	mov	w9, #3
	str	w9, [x19, #460]
	.loc	1 2654 9
	cbnz	w8, .LBB16_287
.Ltmp1283:
	.loc	1 2656 37
	ldr	w8, [x19, #408]
.Ltmp1284:
	.loc	1 2655 28
	mov	w9, #1
	str	w9, [x19, #260]
	.loc	1 2656 10
	cbnz	w8, .LBB16_75
.Ltmp1285:
	.loc	1 2657 7
	mov	x0, x19
	mov	w1, #1
	bl	ebc_power_set
.Ltmp1286:
.LBB16_75:
	.loc	1 2658 31
	ldr	w1, [x21, #40]
	.loc	1 2658 6 is_stmt 0
	mov	x0, x19
	bl	ebc_lut_update
.Ltmp1287:
	.loc	1 2660 55 is_stmt 1
	ldr	w8, [x19, #320]
.Ltmp1288:
	.loc	1 2662 6
	adrp	x1, .L.str.75
	ldr	x0, [x19, #312]
	add	x1, x1, :lo12:.L.str.75
	and	w2, w8, #0xff
.Ltmp1289:
	.loc	1 2661 31
	strh	w8, [x19, #264]
.Ltmp1290:
	.loc	1 2662 6
	bl	_dev_info
.Ltmp1291:
	.loc	1 2663 6
	mov	x0, x19
	bl	ebc_frame_start
.Ltmp1292:
	.loc	1 0 6 is_stmt 0
	b	.LBB16_287
.Ltmp1293:
.LBB16_76:
	mov	w9, #61564
	movk	w9, #63, lsl #16
	tst	w8, w9
	b.eq	.LBB16_223
.Ltmp1294:
	mov	w27, wzr
.Ltmp1295:
	.loc	1 2690 19 is_stmt 1
	ldr	w8, [x24]
.Ltmp1296:
	.loc	1 2690 9 is_stmt 0
	cbnz	w8, .LBB16_225
	b	.LBB16_231
.Ltmp1297:
.LBB16_78:
	.loc	1 2433 16 is_stmt 1
	adrp	x9, resume_count_start
	ldrb	w9, [x9, :lo12:resume_count_start]
.Ltmp1298:
	.loc	1 2433 16 is_stmt 0
	cmp	w9, #1
	b.ne	.LBB16_198
.Ltmp1299:
	.loc	1 0 16
	adrp	x10, resume_frame_count
.Ltmp1300:
	.loc	1 2434 28 is_stmt 1
	ldr	w8, [x10, :lo12:resume_frame_count]
	add	w9, w8, #1
.Ltmp1301:
	.loc	1 2434 10 is_stmt 0
	cmp	w8, #6
.Ltmp1302:
	.loc	1 2434 28
	str	w9, [x10, :lo12:resume_frame_count]
.Ltmp1303:
	.loc	1 2434 10
	b.lt	.LBB16_81
.Ltmp1304:
	.loc	1 2435 26 is_stmt 1
	adrp	x8, resume_count_start
	strb	wzr, [x8, :lo12:resume_count_start]
.Ltmp1305:
.LBB16_81:
	.loc	1 2278 23
	ldrsw	x9, [x19, #236]
.Ltmp1306:
	.loc	1 0 23 is_stmt 0
	add	w8, w9, #7
	cmp	w9, #0
	csel	w10, w8, w9, lt
.Ltmp1307:
	.loc	1 2281 2 is_stmt 1
	cmp	w9, #8
	b.lt	.LBB16_85
.Ltmp1308:
	.loc	1 0 2 is_stmt 0
	mov	w11, #26215
	mov	w8, wzr
	movk	w11, #26214, lsl #16
	asr	w10, w10, #3
	mul	x9, x9, x11
.Ltmp1309:
	lsr	x11, x9, #63
	asr	x9, x9, #34
	add	w9, w9, w11
.Ltmp1310:
	.loc	1 2273 30 is_stmt 1
	ldr	x11, [x21, #16]
.Ltmp1311:
.LBB16_83:
	.loc	1 2282 21
	ldr	x12, [x11]
.Ltmp1312:
	.loc	1 2283 23
	cmp	x12, #0
.Ltmp1313:
	.loc	1 2283 7 is_stmt 0
	cinc	w8, w8, ne
.Ltmp1314:
	.loc	1 2285 7 is_stmt 1
	cmp	w9, w8, lsl #3
	b.lt	.LBB16_27
.Ltmp1315:
	.loc	1 2282 30
	add	x11, x11, #8
.Ltmp1316:
	.loc	1 2281 16
	subs	w10, w10, #1
.Ltmp1317:
	.loc	1 2281 2 is_stmt 0
	b.ne	.LBB16_83
.Ltmp1318:
.LBB16_85:
	.loc	1 0 0
	adrp	x0, .L.str.91
	add	x0, x0, :lo12:.L.str.91
	bl	_printk
.Ltmp1319:
	b	.LBB16_260
.Ltmp1320:
.LBB16_86:
	mov	w8, #13
.Ltmp1321:
.LBB16_87:
	.loc	1 2826 5 is_stmt 1
	cbnz	x0, .LBB16_33
.Ltmp1322:
	mov	x0, x8
.Ltmp1323:
	bl	schedule_timeout
.Ltmp1324:
	mov	x21, x0
.Ltmp1325:
	adrp	x0, ebc_thread_wq
	sub	x1, x29, #48
	add	x0, x0, :lo12:ebc_thread_wq
	mov	w2, #1
	bl	prepare_to_wait_event
.Ltmp1326:
	.loc	1 2826 5 is_stmt 0
	ldr	w9, [x19, #308]
.Ltmp1327:
	.loc	1 2826 5
	cmp	x21, #0
.Ltmp1328:
	.loc	1 2826 5
	ccmp	w9, #0, #4, eq
.Ltmp1329:
	.loc	1 2826 5
	csinc	x8, x21, xzr, eq
.Ltmp1330:
	.loc	1 2826 5
	cbnz	w9, .LBB16_32
.Ltmp1331:
	cbnz	x8, .LBB16_87
	b	.LBB16_32
.Ltmp1332:
.LBB16_90:
	.loc	1 2526 68 is_stmt 1
	cmp	w8, #4
	b.ne	.LBB16_50
.Ltmp1333:
	.loc	1 2526 81 is_stmt 0
	ldr	w8, [x24]
	cbnz	w8, .LBB16_94
	b	.LBB16_50
.Ltmp1334:
.LBB16_92:
	.loc	1 2527 37 is_stmt 1
	cmp	w8, #3
	b.ne	.LBB16_94
.Ltmp1335:
	.loc	1 2530 57
	ldr	w8, [x24]
.Ltmp1336:
	.loc	1 2530 17 is_stmt 0
	cbnz	w8, .LBB16_364
.Ltmp1337:
.LBB16_94:
	.loc	1 2536 15 is_stmt 1
	ldr	w8, [x22]
.Ltmp1338:
	.loc	1 2536 10 is_stmt 0
	cbnz	w8, .LBB16_102
.Ltmp1339:
.LBB16_95:
	.loc	1 2537 21 is_stmt 1
	ldr	w1, [x19, #296]
	.loc	1 2538 8
	sub	w8, w1, #1
	cmp	w8, #99
	b.hi	.LBB16_100
.Ltmp1340:
	.loc	1 2322 29
	ldr	w9, [x19, #236]
.Ltmp1341:
	.loc	1 0 29 is_stmt 0
	add	w8, w9, #7
	cmp	w9, #0
	csel	w11, w8, w9, lt
.Ltmp1342:
	.loc	1 2329 2 is_stmt 1
	cmp	w9, #8
	b.lt	.LBB16_100
.Ltmp1343:
	.loc	1 0 2 is_stmt 0
	mul	w9, w1, w9
	mov	w12, #34079
	movk	w12, #20971, lsl #16
	.loc	1 2539 52 is_stmt 1
	ldr	x10, [x19, #424]
	mov	w8, wzr
	asr	w11, w11, #3
	smull	x9, w9, w12
	lsr	x12, x9, #63
	asr	x13, x9, #37
.Ltmp1344:
	.loc	1 2324 37
	ldr	x9, [x10, #16]
.Ltmp1345:
	.loc	1 0 37 is_stmt 0
	add	w10, w13, w12
.Ltmp1346:
	.loc	1 2323 37 is_stmt 1
	ldr	x12, [x21, #16]
.Ltmp1347:
.LBB16_98:
	.loc	1 2330 21
	ldr	x13, [x12]
.Ltmp1348:
	.loc	1 2331 21
	ldr	x14, [x9]
.Ltmp1349:
	.loc	1 2333 23
	cmp	x13, x14
.Ltmp1350:
	.loc	1 2333 7 is_stmt 0
	cinc	w8, w8, ne
.Ltmp1351:
	.loc	1 2337 7 is_stmt 1
	cmp	w10, w8, lsl #3
	b.lt	.LBB16_377
.Ltmp1352:
	.loc	1 2331 30
	add	x9, x9, #8
.Ltmp1353:
	.loc	1 2330 30
	add	x12, x12, #8
.Ltmp1354:
	.loc	1 2329 16
	subs	w11, w11, #1
.Ltmp1355:
	.loc	1 2329 2 is_stmt 0
	b.ne	.LBB16_98
.Ltmp1356:
.LBB16_100:
	.loc	1 2555 11 is_stmt 1
	bl	ebc_get_dsp_list_enum_num
.Ltmp1357:
	.loc	1 2555 11 is_stmt 0
	cbnz	w0, .LBB16_360
.Ltmp1358:
	.loc	1 2560 28 is_stmt 1
	ldr	w2, [x19, #456]
.Ltmp1359:
	.loc	1 2560 18 is_stmt 0
	cmp	w2, #1
	b.ge	.LBB16_337
.Ltmp1360:
.LBB16_102:
	.loc	1 2574 44 is_stmt 1
	ldr	w9, [x21, #40]
	mov	w8, #12
.Ltmp1361:
	.loc	1 2132 2
	cmp	w9, #23
	b.hi	.LBB16_108
.Ltmp1362:
	.loc	1 0 2 is_stmt 0
	mov	w10, #1
	lsl	w9, w10, w9
	mov	w10, #16384
	movk	w10, #65, lsl #16
	tst	w9, w10
	b.ne	.LBB16_107
.Ltmp1363:
	tst	w9, #0x3000
	b.ne	.LBB16_214
.Ltmp1364:
	mov	w10, #32768
	movk	w10, #128, lsl #16
	tst	w9, w10
	b.eq	.LBB16_108
.Ltmp1365:
	mov	w8, #2
	b	.LBB16_108
.Ltmp1366:
.LBB16_107:
	mov	w8, #1
.Ltmp1367:
.LBB16_108:
	.loc	1 2575 21 is_stmt 1
	ldr	w9, [x19, #352]
	.loc	1 2575 49 is_stmt 0
	cmp	w9, #7
	b.eq	.LBB16_217
.Ltmp1368:
	.loc	1 2576 52 is_stmt 1
	cmp	w9, #1
	b.ne	.LBB16_215
.Ltmp1369:
.LBB16_110:
	cmp	w8, #1
	b.eq	.LBB16_218
.Ltmp1370:
	cmp	w8, #7
	b.eq	.LBB16_218
	b	.LBB16_217
.Ltmp1371:
.LBB16_112:
	.loc	1 2390 35
	cmp	w8, #3
	b.ne	.LBB16_114
.Ltmp1372:
	.loc	1 2393 55
	ldr	w8, [x24]
.Ltmp1373:
	.loc	1 2393 15 is_stmt 0
	cbnz	w8, .LBB16_369
.Ltmp1374:
.LBB16_114:
	.loc	1 2400 23 is_stmt 1
	mov	w8, #4
	.loc	1 2399 27
	str	x21, [x19, #448]
.Ltmp1375:
	.loc	1 451 20
	ldr	w9, [x19, #304]
.Ltmp1376:
	.loc	1 2400 23
	str	w8, [x19, #460]
.Ltmp1377:
	.loc	1 446 35
	ldp	w10, w8, [x21, #48]
	.loc	1 447 36
	ldp	w12, w14, [x21, #56]
.Ltmp1378:
	.loc	1 446 42
	add	w11, w10, #7
	cmp	w10, #0
	.loc	1 447 43
	add	w13, w12, #7
	.loc	1 446 42
	csel	w11, w11, w10, lt
.Ltmp1379:
	.loc	1 447 43
	cmp	w12, #0
	.loc	1 451 26
	add	w10, w9, #7
	.loc	1 447 43
	csel	w12, w13, w12, lt
	.loc	1 451 26
	cmp	w9, #0
	.loc	1 447 43
	asr	w15, w12, #3
	.loc	1 451 26
	csel	w12, w10, w9, lt
	.loc	1 452 21
	ldr	w10, [x19, #300]
.Ltmp1380:
	.loc	1 447 48
	add	w9, w15, #1
.Ltmp1381:
	.loc	1 451 26
	asr	w13, w12, #3
.Ltmp1382:
	.loc	1 0 26 is_stmt 0
	sub	w16, w13, #1
	.loc	1 453 6 is_stmt 1
	cmp	w9, w13
	csinc	w9, w16, w15, ge
.Ltmp1383:
	.loc	1 455 6
	sub	w15, w10, #1
	cmp	w14, w10
	csel	w10, w14, w15, lt
.Ltmp1384:
	.loc	1 464 2
	cmp	w8, w10
	b.le	.LBB16_119
.Ltmp1385:
.LBB16_115:
	.loc	1 2407 23
	ldr	w8, [x24]
.Ltmp1386:
	.loc	1 2407 8 is_stmt 0
	cbz	w8, .LBB16_296
.Ltmp1387:
	.loc	1 2418 21 is_stmt 1
	adrp	x8, ebc_auto_task
	ldr	x0, [x8, :lo12:ebc_auto_task]
	.loc	1 2418 5 is_stmt 0
	bl	wake_up_process
.Ltmp1388:
	.loc	1 2420 18 is_stmt 1
	ldr	x0, [x19, #440]
.Ltmp1389:
	.loc	1 2420 8 is_stmt 0
	cbz	x0, .LBB16_118
.Ltmp1390:
.LBB16_117:
	.loc	1 2421 5 is_stmt 1
	bl	ebc_buf_release
.Ltmp1391:
.LBB16_118:
	.loc	1 2422 39
	ldr	x8, [x19, #448]
	mov	w22, wzr
	.loc	1 2422 27 is_stmt 0
	str	x8, [x19, #440]
.Ltmp1392:
	.loc	1 0 27
	b	.LBB16_3
.Ltmp1393:
.LBB16_119:
	.loc	1 2403 27 is_stmt 1
	ldr	x14, [x19, #432]
	mul	w13, w13, w8
	.loc	1 2405 27
	ldp	x16, x15, [x19, #376]
	sxtw	x13, w13
.Ltmp1394:
	.loc	1 0 27 is_stmt 0
	asr	w11, w11, #3
	.loc	1 2403 41 is_stmt 1
	ldr	x14, [x14, #16]
.Ltmp1395:
	.loc	1 462 11
	lsl	x0, x13, #3
.Ltmp1396:
	.loc	1 2402 41
	ldr	x17, [x21, #16]
.Ltmp1397:
	.loc	1 0 41 is_stmt 0
	sbfx	x2, x12, #3, #29
	.loc	1 2401 44 is_stmt 1
	ldr	x1, [x19, #360]
.Ltmp1398:
	.loc	1 461 14
	add	x13, x16, x0
.Ltmp1399:
	.loc	1 462 11
	add	x12, x15, x0
.Ltmp1400:
	.loc	1 460 11
	add	x14, x14, x0
.Ltmp1401:
	.loc	1 459 12
	add	x15, x17, x0
.Ltmp1402:
	.loc	1 464 2
	sxtw	x17, w11
.Ltmp1403:
	.loc	1 458 12
	add	x16, x1, x0
.Ltmp1404:
	.loc	1 464 2
	add	w0, w9, #1
	sxtw	x0, w0
	lsl	x1, x2, #3
	b	.LBB16_121
.Ltmp1405:
.LBB16_120:
	.loc	1 464 33 is_stmt 0
	add	w8, w8, #1
.Ltmp1406:
	.loc	1 464 2
	add	x12, x12, x1
	add	x13, x13, x1
	add	x14, x14, x1
	add	x15, x15, x1
	add	x16, x16, x1
	cmp	w8, w10
	b.gt	.LBB16_115
.Ltmp1407:
.LBB16_121:
	.loc	1 465 3 is_stmt 1
	cmp	w11, w9
	b.gt	.LBB16_120
.Ltmp1408:
	.loc	1 0 3 is_stmt 0
	mov	x2, x17
	b	.LBB16_125
.Ltmp1409:
.LBB16_123:
	.loc	1 480 4 is_stmt 1
	orr	x6, x6, #0xff00000000000000
.Ltmp1410:
.LBB16_124:
	.loc	1 482 19
	bic	x5, x5, x6
.Ltmp1411:
	.loc	1 483 36
	and	x6, x6, x22
.Ltmp1412:
	.loc	1 465 34
	add	x2, x2, #1
.Ltmp1413:
	.loc	1 483 19
	orr	x5, x5, x6
.Ltmp1414:
	.loc	1 465 3
	cmp	x0, x2
.Ltmp1415:
	.loc	1 484 20
	str	x4, [x12, x3]
	.loc	1 485 21
	str	x5, [x16, x3]
.Ltmp1416:
	.loc	1 465 3
	b.eq	.LBB16_120
.Ltmp1417:
.LBB16_125:
	.loc	1 466 21
	lsl	x3, x2, #3
	.loc	1 469 23
	ldr	x21, [x13, x3]
.Ltmp1418:
	.loc	1 466 21
	ldr	x5, [x16, x3]
.Ltmp1419:
	.loc	1 467 21
	ldr	x7, [x15, x3]
.Ltmp1420:
	.loc	1 470 20
	ldr	x4, [x12, x3]
.Ltmp1421:
	.loc	1 473 4
	tst	x21, #0xff
.Ltmp1422:
	.loc	1 473 4 is_stmt 0
	b.eq	.LBB16_127
.Ltmp1423:
	.loc	1 0 4
	mov	x6, xzr
	b	.LBB16_129
.Ltmp1424:
.LBB16_127:
	.loc	1 473 4
	and	x4, x4, #0xffffffffffffff00
.Ltmp1425:
	.loc	1 473 4
	and	x22, x7, #0xf0
.Ltmp1426:
	cmp	w22, #240
	b.ne	.LBB16_152
.Ltmp1427:
	.loc	1 0 4
	mov	w6, #255
.Ltmp1428:
.LBB16_129:
	.loc	1 474 4 is_stmt 1
	tst	x21, #0xff00
.Ltmp1429:
	.loc	1 474 4 is_stmt 0
	b.ne	.LBB16_132
.Ltmp1430:
	.loc	1 474 4
	and	x4, x4, #0xffffffffffff00ff
.Ltmp1431:
	.loc	1 474 4
	and	x22, x7, #0xf000
.Ltmp1432:
	cmp	w22, #15, lsl #12
	b.ne	.LBB16_154
.Ltmp1433:
	.loc	1 474 4
	orr	x6, x6, #0xff00
.Ltmp1434:
.LBB16_132:
	.loc	1 0 0
	ldr	x22, [x14, x3]
.Ltmp1435:
	.loc	1 475 4 is_stmt 1
	tst	x21, #0xff0000
.Ltmp1436:
	.loc	1 475 4 is_stmt 0
	b.eq	.LBB16_138
.Ltmp1437:
	.loc	1 476 4 is_stmt 1
	tst	x21, #0xff000000
.Ltmp1438:
	.loc	1 476 4 is_stmt 0
	b.eq	.LBB16_140
.Ltmp1439:
.LBB16_134:
	.loc	1 477 4 is_stmt 1
	tst	x21, #0xff00000000
.Ltmp1440:
	.loc	1 477 4 is_stmt 0
	b.eq	.LBB16_142
.Ltmp1441:
.LBB16_135:
	.loc	1 478 4 is_stmt 1
	tst	x21, #0xff0000000000
.Ltmp1442:
	.loc	1 478 4 is_stmt 0
	b.eq	.LBB16_144
.Ltmp1443:
.LBB16_136:
	.loc	1 479 4 is_stmt 1
	tst	x21, #0xff000000000000
.Ltmp1444:
	.loc	1 479 4 is_stmt 0
	b.eq	.LBB16_146
.Ltmp1445:
.LBB16_137:
	.loc	1 480 4 is_stmt 1
	lsr	x21, x21, #56
.Ltmp1446:
	cbnz	x21, .LBB16_124
	b	.LBB16_148
.Ltmp1447:
.LBB16_138:
	.loc	1 475 4
	and	x4, x4, #0xffffffffff00ffff
.Ltmp1448:
	.loc	1 475 4 is_stmt 0
	and	x27, x7, #0xf00000
.Ltmp1449:
	cmp	x27, #3840, lsl #12
	b.ne	.LBB16_156
.Ltmp1450:
	.loc	1 475 4
	orr	x6, x6, #0xff0000
.Ltmp1451:
	.loc	1 476 4 is_stmt 1
	tst	x21, #0xff000000
.Ltmp1452:
	.loc	1 476 4 is_stmt 0
	b.ne	.LBB16_134
.Ltmp1453:
.LBB16_140:
	.loc	1 476 4
	and	x4, x4, #0xffffffff00ffffff
.Ltmp1454:
	.loc	1 476 4
	and	x27, x7, #0xf0000000
.Ltmp1455:
	cmp	w27, w20
	b.ne	.LBB16_160
.Ltmp1456:
	.loc	1 476 4
	orr	x6, x6, #0xff000000
.Ltmp1457:
	.loc	1 477 4 is_stmt 1
	tst	x21, #0xff00000000
.Ltmp1458:
	.loc	1 477 4 is_stmt 0
	b.ne	.LBB16_135
.Ltmp1459:
.LBB16_142:
	.loc	1 477 4
	and	x4, x4, #0xffffff00ffffffff
.Ltmp1460:
	.loc	1 477 4
	and	x27, x7, #0xf000000000
.Ltmp1461:
	cmp	x27, x28
	b.ne	.LBB16_162
.Ltmp1462:
	.loc	1 477 4
	orr	x6, x6, #0xff00000000
.Ltmp1463:
	.loc	1 478 4 is_stmt 1
	tst	x21, #0xff0000000000
.Ltmp1464:
	.loc	1 478 4 is_stmt 0
	b.ne	.LBB16_136
.Ltmp1465:
.LBB16_144:
	.loc	1 478 4
	and	x4, x4, #0xffff00ffffffffff
.Ltmp1466:
	.loc	1 478 4
	and	x27, x7, #0xf00000000000
.Ltmp1467:
	cmp	x27, x23
	b.ne	.LBB16_164
.Ltmp1468:
	.loc	1 478 4
	orr	x6, x6, #0xff0000000000
.Ltmp1469:
	.loc	1 479 4 is_stmt 1
	tst	x21, #0xff000000000000
.Ltmp1470:
	.loc	1 479 4 is_stmt 0
	b.ne	.LBB16_137
.Ltmp1471:
.LBB16_146:
	.loc	1 479 4
	and	x4, x4, #0xff00ffffffffffff
.Ltmp1472:
	.loc	1 479 4
	and	x27, x7, #0xf0000000000000
.Ltmp1473:
	cmp	x27, x25
	b.ne	.LBB16_166
.Ltmp1474:
	.loc	1 479 4
	orr	x6, x6, #0xff000000000000
.Ltmp1475:
	.loc	1 480 4 is_stmt 1
	lsr	x21, x21, #56
.Ltmp1476:
	cbnz	x21, .LBB16_124
.Ltmp1477:
.LBB16_148:
	.loc	1 480 4 is_stmt 0
	and	x4, x4, #0xffffffffffffff
.Ltmp1478:
	.loc	1 480 4
	lsr	x21, x7, #60
	cmp	x21, #15
	b.hs	.LBB16_123
.Ltmp1479:
	.loc	1 0 0
	and	x7, x7, #0xf000000000000000
.Ltmp1480:
	.loc	1 480 4
	mov	x21, #-2305843009213693952
	cmp	x7, x21
	b.eq	.LBB16_184
.Ltmp1481:
	.loc	1 480 4
	and	x5, x5, #0xffffffffffffff
.Ltmp1482:
	.loc	1 480 4
	cbnz	x7, .LBB16_185
.Ltmp1483:
	.loc	1 480 4
	orr	x4, x4, #0x100000000000000
.Ltmp1484:
	.loc	1 0 4
	b	.LBB16_124
.Ltmp1485:
.LBB16_152:
	.loc	1 473 4 is_stmt 1
	cbnz	w22, .LBB16_168
.Ltmp1486:
	.loc	1 0 4 is_stmt 0
	mov	x6, xzr
.Ltmp1487:
	.loc	1 473 4
	and	x5, x5, #0xffffffffffffff00
.Ltmp1488:
	orr	x4, x4, #0x1
.Ltmp1489:
	.loc	1 0 4
	b	.LBB16_129
.Ltmp1490:
.LBB16_154:
	.loc	1 474 4 is_stmt 1
	and	x5, x5, #0xffffffffffff00ff
.Ltmp1491:
	.loc	1 474 4 is_stmt 0
	cbnz	w22, .LBB16_170
.Ltmp1492:
	.loc	1 474 4
	orr	x4, x4, #0x100
.Ltmp1493:
	.loc	1 0 4
	b	.LBB16_132
.Ltmp1494:
.LBB16_156:
	.loc	1 475 4 is_stmt 1
	and	x5, x5, #0xffffffffff00ffff
.Ltmp1495:
	.loc	1 475 4 is_stmt 0
	cbz	x27, .LBB16_159
.Ltmp1496:
	cmp	x27, #3584, lsl #12
	b.ne	.LBB16_186
.Ltmp1497:
	.loc	1 475 4
	orr	x5, x5, #0xf00000
.Ltmp1498:
.LBB16_159:
	.loc	1 0 0
	orr	x4, x4, #0x10000
.Ltmp1499:
	.loc	1 476 4 is_stmt 1
	tst	x21, #0xff000000
.Ltmp1500:
	.loc	1 476 4 is_stmt 0
	b.ne	.LBB16_134
	b	.LBB16_140
.Ltmp1501:
.LBB16_160:
	.loc	1 476 4
	cbnz	w27, .LBB16_172
.Ltmp1502:
	.loc	1 476 4
	and	x5, x5, #0xffffffff00ffffff
.Ltmp1503:
	.loc	1 0 4
	b	.LBB16_174
.Ltmp1504:
.LBB16_162:
	.loc	1 477 4 is_stmt 1
	cbnz	x27, .LBB16_175
.Ltmp1505:
	.loc	1 477 4 is_stmt 0
	and	x5, x5, #0xffffff00ffffffff
.Ltmp1506:
	.loc	1 0 4
	b	.LBB16_177
.Ltmp1507:
.LBB16_164:
	.loc	1 478 4 is_stmt 1
	cbnz	x27, .LBB16_178
.Ltmp1508:
	.loc	1 478 4 is_stmt 0
	and	x5, x5, #0xffff00ffffffffff
.Ltmp1509:
	.loc	1 0 4
	b	.LBB16_180
.Ltmp1510:
.LBB16_166:
	.loc	1 479 4 is_stmt 1
	cbnz	x27, .LBB16_181
.Ltmp1511:
	.loc	1 479 4 is_stmt 0
	and	x5, x5, #0xff00ffffffffffff
.Ltmp1512:
	.loc	1 0 4
	b	.LBB16_183
.Ltmp1513:
.LBB16_168:
	.loc	1 473 4 is_stmt 1
	cmp	w22, #224
	b.ne	.LBB16_187
.Ltmp1514:
	.loc	1 473 4 is_stmt 0
	and	x5, x5, #0xffffffffffffff00
.Ltmp1515:
	.loc	1 0 4
	mov	x6, xzr
	.loc	1 473 4
	orr	x5, x5, #0xf0
.Ltmp1516:
	orr	x4, x4, #0x1
.Ltmp1517:
	.loc	1 0 4
	b	.LBB16_129
.Ltmp1518:
.LBB16_170:
	.loc	1 474 4 is_stmt 1
	cmp	w22, #14, lsl #12
	b.ne	.LBB16_188
.Ltmp1519:
	.loc	1 474 4 is_stmt 0
	orr	x5, x5, #0xf000
.Ltmp1520:
	orr	x4, x4, #0x100
.Ltmp1521:
	.loc	1 0 4
	b	.LBB16_132
.Ltmp1522:
.LBB16_172:
	.loc	1 476 4 is_stmt 1
	and	x5, x5, #0xffffffff00ffffff
.Ltmp1523:
	.loc	1 476 4 is_stmt 0
	mov	w30, #-536870912
	cmp	w27, w30
	b.ne	.LBB16_189
.Ltmp1524:
	.loc	1 476 4
	orr	x5, x5, #0xf0000000
.Ltmp1525:
.LBB16_174:
	.loc	1 0 0
	orr	x4, x4, #0x1000000
.Ltmp1526:
	.loc	1 477 4 is_stmt 1
	tst	x21, #0xff00000000
.Ltmp1527:
	.loc	1 477 4 is_stmt 0
	b.ne	.LBB16_135
	b	.LBB16_142
.Ltmp1528:
.LBB16_175:
	.loc	1 477 4
	and	x5, x5, #0xffffff00ffffffff
.Ltmp1529:
	.loc	1 477 4
	mov	x30, #962072674304
	cmp	x27, x30
	b.ne	.LBB16_190
.Ltmp1530:
	.loc	1 477 4
	orr	x5, x5, #0xf000000000
.Ltmp1531:
.LBB16_177:
	.loc	1 0 0
	orr	x4, x4, #0x100000000
.Ltmp1532:
	.loc	1 478 4 is_stmt 1
	tst	x21, #0xff0000000000
.Ltmp1533:
	.loc	1 478 4 is_stmt 0
	b.ne	.LBB16_136
	b	.LBB16_144
.Ltmp1534:
.LBB16_178:
	.loc	1 478 4
	and	x5, x5, #0xffff00ffffffffff
.Ltmp1535:
	.loc	1 478 4
	mov	x30, #246290604621824
	cmp	x27, x30
	b.ne	.LBB16_191
.Ltmp1536:
	.loc	1 478 4
	orr	x5, x5, #0xf00000000000
.Ltmp1537:
.LBB16_180:
	.loc	1 0 0
	orr	x4, x4, #0x10000000000
.Ltmp1538:
	.loc	1 479 4 is_stmt 1
	tst	x21, #0xff000000000000
.Ltmp1539:
	.loc	1 479 4 is_stmt 0
	b.ne	.LBB16_137
	b	.LBB16_146
.Ltmp1540:
.LBB16_181:
	.loc	1 479 4
	and	x5, x5, #0xff00ffffffffffff
.Ltmp1541:
	.loc	1 479 4
	mov	x30, #63050394783186944
	cmp	x27, x30
	b.ne	.LBB16_192
.Ltmp1542:
	.loc	1 479 4
	orr	x5, x5, #0xf0000000000000
.Ltmp1543:
.LBB16_183:
	.loc	1 0 0
	orr	x4, x4, #0x1000000000000
.Ltmp1544:
	.loc	1 480 4 is_stmt 1
	lsr	x21, x21, #56
.Ltmp1545:
	cbnz	x21, .LBB16_124
	b	.LBB16_148
.Ltmp1546:
.LBB16_184:
	.loc	1 480 4 is_stmt 0
	mov	x7, #-1152921504606846976
.Ltmp1547:
	orr	x4, x4, #0x100000000000000
.Ltmp1548:
	bfxil	x7, x5, #0, #56
.Ltmp1549:
	.loc	1 0 4
	mov	x5, x7
.Ltmp1550:
	b	.LBB16_124
.Ltmp1551:
.LBB16_185:
	.loc	1 480 4
	orr	x5, x5, x7
.Ltmp1552:
	.loc	1 0 4
	b	.LBB16_124
.Ltmp1553:
.LBB16_186:
	.loc	1 475 4 is_stmt 1
	orr	x5, x5, x27
.Ltmp1554:
	.loc	1 476 4
	tst	x21, #0xff000000
.Ltmp1555:
	.loc	1 476 4 is_stmt 0
	b.ne	.LBB16_134
	b	.LBB16_140
.Ltmp1556:
.LBB16_187:
	.loc	1 473 4 is_stmt 1
	and	x5, x5, #0xffffffffffffff00
.Ltmp1557:
	.loc	1 0 4 is_stmt 0
	mov	x6, xzr
	.loc	1 473 4
	orr	x5, x22, x5
.Ltmp1558:
	.loc	1 0 4
	b	.LBB16_129
.Ltmp1559:
.LBB16_188:
	.loc	1 474 4 is_stmt 1
	orr	x5, x5, x22
.Ltmp1560:
	.loc	1 0 4 is_stmt 0
	b	.LBB16_132
.Ltmp1561:
.LBB16_189:
	.loc	1 476 4 is_stmt 1
	orr	x5, x5, x27
.Ltmp1562:
	.loc	1 477 4
	tst	x21, #0xff00000000
.Ltmp1563:
	.loc	1 477 4 is_stmt 0
	b.ne	.LBB16_135
	b	.LBB16_142
.Ltmp1564:
.LBB16_190:
	.loc	1 477 4
	orr	x5, x5, x27
.Ltmp1565:
	.loc	1 478 4 is_stmt 1
	tst	x21, #0xff0000000000
.Ltmp1566:
	.loc	1 478 4 is_stmt 0
	b.ne	.LBB16_136
	b	.LBB16_144
.Ltmp1567:
.LBB16_191:
	.loc	1 478 4
	orr	x5, x5, x27
.Ltmp1568:
	.loc	1 479 4 is_stmt 1
	tst	x21, #0xff000000000000
.Ltmp1569:
	.loc	1 479 4 is_stmt 0
	b.ne	.LBB16_137
	b	.LBB16_146
.Ltmp1570:
.LBB16_192:
	.loc	1 479 4
	orr	x5, x5, x27
.Ltmp1571:
	.loc	1 480 4 is_stmt 1
	lsr	x21, x21, #56
.Ltmp1572:
	cbnz	x21, .LBB16_124
	b	.LBB16_148
.Ltmp1573:
.LBB16_193:
	.loc	1 2844 9
	bl	ebc_get_dsp_list_enum_num
.Ltmp1574:
	.loc	1 2844 37 is_stmt 0
	cbnz	w0, .LBB16_3
.Ltmp1575:
	.loc	1 2844 40
	bl	ebc_get_osd_list_enum_num
.Ltmp1576:
	.loc	1 2844 9
	cbnz	w0, .LBB16_3
.Ltmp1577:
	.loc	1 2846 35 is_stmt 1
	ldr	w8, [x19, #408]
.Ltmp1578:
	.loc	1 2846 9 is_stmt 0
	cmp	w8, #1
	b.ne	.LBB16_209
.Ltmp1579:
	.loc	1 416 25 is_stmt 1
	ldr	x0, [x19, #8]
	.loc	1 415 30
	str	wzr, [x19, #408]
.Ltmp1580:
	.loc	170 60 8
	ldr	x8, [x0, #64]
	.loc	170 60 2 is_stmt 0
	blr	x8
.Ltmp1581:
	.loc	1 417 12 is_stmt 1
	ldr	x0, [x19, #16]
.Ltmp1582:
	.loc	1 417 7 is_stmt 0
	cbnz	x0, .LBB16_388
.Ltmp1583:
	.loc	1 420 33 is_stmt 1
	ldr	x0, [x19, #24]
	.loc	1 420 10 is_stmt 0
	bl	regulator_disable
.Ltmp1584:
	mov	w21, w0
.Ltmp1585:
	.loc	1 0 10
	b	.LBB16_389
.Ltmp1586:
.LBB16_198:
	.loc	1 2441 26 is_stmt 1
	ldr	w9, [x19, #792]
	.loc	1 2441 43 is_stmt 0
	cbnz	w9, .LBB16_200
.Ltmp1587:
	.loc	1 2441 56
	ldr	w9, [x19, #796]
.Ltmp1588:
	.loc	1 2441 16
	cbz	w9, .LBB16_27
.Ltmp1589:
.LBB16_200:
	.loc	1 2442 10 is_stmt 1
	cmp	w8, #19
	b.ne	.LBB16_260
.Ltmp1590:
	.loc	1 2444 7
	mov	w0, #3
	.loc	1 2443 34
	str	wzr, [x19, #792]
	.loc	1 2444 7
	bl	ebc_notify
.Ltmp1591:
	.loc	1 2445 7
	adrp	x1, .L.str.65
	ldr	x0, [x19, #312]
	add	x1, x1, :lo12:.L.str.65
	bl	_dev_info
.Ltmp1592:
	.loc	1 2446 21
	ldr	w8, [x19, #816]
.Ltmp1593:
	.loc	1 2446 11 is_stmt 0
	cbz	w8, .LBB16_27
.Ltmp1594:
	.loc	1 2447 27 is_stmt 1
	mov	w8, #1
	adrp	x9, resume_count_start
.Ltmp1595:
	.loc	1 2449 12
	mov	x0, x21
	ldr	x1, [sp, #56]
.Ltmp1596:
	.loc	1 2447 27
	strb	w8, [x9, :lo12:resume_count_start]
	.loc	1 2448 27
	adrp	x8, resume_frame_count
	str	wzr, [x8, :lo12:resume_frame_count]
.Ltmp1597:
	.loc	1 2449 12
	bl	check_black_percent
.Ltmp1598:
	.loc	1 0 12 is_stmt 0
	cbnz	w0, .LBB16_333
	b	.LBB16_27
.Ltmp1599:
.LBB16_203:
	.loc	1 2835 5 is_stmt 1
	adrp	x0, ebc_thread_wq
	sub	x1, x29, #48
	add	x0, x0, :lo12:ebc_thread_wq
	bl	finish_wait
.Ltmp1600:
.LBB16_204:
	.loc	1 2837 9
	bl	ebc_get_dsp_list_enum_num
.Ltmp1601:
	.loc	1 2837 37 is_stmt 0
	cbnz	w0, .LBB16_3
.Ltmp1602:
	.loc	1 2837 40
	bl	ebc_get_osd_list_enum_num
.Ltmp1603:
	.loc	1 2837 9
	cbnz	w0, .LBB16_3
.Ltmp1604:
	.loc	1 2839 24 is_stmt 1
	ldr	w8, [x24]
.Ltmp1605:
	.loc	1 2839 9 is_stmt 0
	cbnz	w8, .LBB16_209
.Ltmp1606:
	.loc	1 2840 36 is_stmt 1
	ldr	w8, [x19, #408]
.Ltmp1607:
	.loc	1 2840 10 is_stmt 0
	cmp	w8, #1
	b.ne	.LBB16_209
.Ltmp1608:
	.loc	1 2841 7 is_stmt 1
	mov	x0, x19
	mov	w1, wzr
	bl	ebc_power_set
.Ltmp1609:
.LBB16_209:
	.loc	1 2849 18
	ldr	w8, [x19, #308]
.Ltmp1610:
	.loc	1 2849 8 is_stmt 0
	cbnz	w8, .LBB16_317
.Ltmp1611:
.LBB16_210:
	.loc	1 2850 5 is_stmt 1
	sub	x0, x29, #48
	mov	w1, wzr
	stp	xzr, xzr, [x29, #-24]
	stp	xzr, xzr, [x29, #-40]
	stur	xzr, [x29, #-48]
.Ltmp1612:
	bl	init_wait_entry
.Ltmp1613:
.LBB16_211:
	.loc	1 2850 5 is_stmt 0
	adrp	x0, ebc_thread_wq
	sub	x1, x29, #48
	add	x0, x0, :lo12:ebc_thread_wq
	mov	w2, #1
	bl	prepare_to_wait_event
.Ltmp1614:
	.loc	1 2850 5
	ldr	w8, [x19, #308]
.Ltmp1615:
	.loc	1 2850 5
	cbnz	w8, .LBB16_316
.Ltmp1616:
	cbnz	x0, .LBB16_317
.Ltmp1617:
	bl	schedule
.Ltmp1618:
	.loc	1 0 5
	b	.LBB16_211
.Ltmp1619:
.LBB16_214:
	.loc	1 2575 21 is_stmt 1
	ldr	w9, [x19, #352]
	mov	w8, #7
	.loc	1 2576 52
	cmp	w9, #1
	b.eq	.LBB16_110
.Ltmp1620:
.LBB16_215:
	.loc	1 2577 52
	cmp	w9, #2
	b.ne	.LBB16_218
.Ltmp1621:
	cmp	w8, #12
	b.ne	.LBB16_218
.Ltmp1622:
.LBB16_217:
	.loc	1 2578 21
	ldr	w8, [x24]
.Ltmp1623:
	.loc	1 2578 11 is_stmt 0
	cbnz	w8, .LBB16_301
.Ltmp1624:
.LBB16_218:
	.loc	1 2591 25 is_stmt 1
	mov	w8, #4
	.loc	1 2592 29
	str	x21, [x19, #432]
	.loc	1 2596 27
	ldp	x3, x4, [x19, #376]
	.loc	1 2591 25
	str	w8, [x19, #460]
	.loc	1 2593 41
	ldr	x0, [x19, #360]
	.loc	1 2594 27
	ldr	x1, [x19, #224]
	.loc	1 2595 41
	ldr	x2, [x21, #16]
	ldr	x5, [sp, #56]
	.loc	1 2593 6
	bl	refresh_new_image
.Ltmp1625:
	.loc	1 2599 25
	ldr	w8, [x19, #260]
.Ltmp1626:
	.loc	1 2599 10 is_stmt 0
	cbz	w8, .LBB16_262
.Ltmp1627:
.LBB16_219:
	.loc	1 2609 20 is_stmt 1
	ldr	x8, [x19, #432]
	.loc	1 2609 34 is_stmt 0
	ldr	w8, [x8, #40]
	.loc	1 2610 7 is_stmt 1
	cmp	w8, #23
	b.hi	.LBB16_221
.Ltmp1628:
	.loc	1 0 7 is_stmt 0
	mov	w9, #1
	lsl	w8, w9, w8
	mov	w9, #1
	movk	w9, #192, lsl #16
	tst	w8, w9
	b.ne	.LBB16_287
.Ltmp1629:
.LBB16_221:
	.loc	1 2612 20 is_stmt 1
	ldr	w8, [x24]
.Ltmp1630:
	.loc	1 2609 10
	cbz	w8, .LBB16_287
.Ltmp1631:
	.loc	1 2615 7
	adrp	x1, .L.str.74
	ldr	x0, [x19, #312]
	add	x1, x1, :lo12:.L.str.74
.Ltmp1632:
	.loc	1 2614 35
	str	wzr, [x19, #808]
.Ltmp1633:
	.loc	1 2615 7
	bl	_dev_info
.Ltmp1634:
	.loc	1 2616 49
	adrp	x8, jiffies
	.loc	1 2616 98 is_stmt 0
	mov	w9, #14
	.loc	1 2616 49
	ldr	x21, [x8, :lo12:jiffies]
	.loc	1 2616 86
	ldrb	w8, [x19, #264]
	.loc	1 2616 98
	mul	w0, w8, w9
.Ltmp1635:
	.file	203 "/home/lyx/rk-android14/kernel-6.1" "./include/linux/jiffies.h"
	.loc	203 370 10 is_stmt 1
	bl	__msecs_to_jiffies
.Ltmp1636:
	.loc	1 2616 57
	add	x1, x0, x21
	ldr	x0, [sp]
	b	.LBB16_286
.Ltmp1637:
.LBB16_223:
	.loc	1 0 57 is_stmt 0
	tst	w8, #0xf80
	b.eq	.LBB16_295
.Ltmp1638:
	mov	w27, #1
.Ltmp1639:
	.loc	1 2690 19 is_stmt 1
	ldr	w8, [x24]
.Ltmp1640:
	.loc	1 2690 9 is_stmt 0
	cbz	w8, .LBB16_231
.Ltmp1641:
.LBB16_225:
	.loc	1 0 9
	ldr	x8, [sp, #48]
.Ltmp1642:
	.loc	1 2691 6 is_stmt 1
	adrp	x1, .L.str.76
	add	x1, x1, :lo12:.L.str.76
	ldr	x0, [x8]
	bl	_dev_info
.Ltmp1643:
	.loc	1 2692 6
	ldr	w8, [x24]
.Ltmp1644:
	.loc	1 2692 6 is_stmt 0
	cbz	w8, .LBB16_231
.Ltmp1645:
	.loc	1 2692 6
	sub	x0, x29, #48
	mov	w1, wzr
	stp	xzr, xzr, [x29, #-24]
	stp	xzr, xzr, [x29, #-40]
	stur	xzr, [x29, #-48]
.Ltmp1646:
	bl	init_wait_entry
.Ltmp1647:
.LBB16_227:
	.loc	1 2692 6
	adrp	x0, ebc_thread_wq
	sub	x1, x29, #48
	add	x0, x0, :lo12:ebc_thread_wq
	mov	w2, #1
	bl	prepare_to_wait_event
.Ltmp1648:
	.loc	1 2692 6
	ldr	w8, [x24]
.Ltmp1649:
	.loc	1 2692 6
	cbz	w8, .LBB16_230
.Ltmp1650:
	cbnz	x0, .LBB16_231
.Ltmp1651:
	bl	schedule
.Ltmp1652:
	.loc	1 0 6
	b	.LBB16_227
.Ltmp1653:
.LBB16_230:
	.loc	1 2692 6
	adrp	x0, ebc_thread_wq
	sub	x1, x29, #48
	add	x0, x0, :lo12:ebc_thread_wq
	bl	finish_wait
.Ltmp1654:
.LBB16_231:
	.loc	1 2695 19 is_stmt 1
	ldr	w8, [x19, #460]
	.loc	1 2695 36 is_stmt 0
	sub	w8, w8, #3
	cmp	w8, #1
	b.hi	.LBB16_233
.Ltmp1655:
	.loc	1 2696 23 is_stmt 1
	ldr	x8, [x19, #424]
	.loc	1 2696 58 is_stmt 0
	ldr	x1, [x19, #368]
	.loc	1 2696 84
	ldrsw	x2, [x19, #236]
	.loc	1 2696 37
	ldr	x0, [x8, #16]
	.loc	1 2696 6
	bl	memcpy
.Ltmp1656:
.LBB16_233:
	.loc	1 2698 14 is_stmt 1
	ldr	w1, [x21, #40]
	.loc	1 2699 6
	sub	w8, w1, #7
	cmp	w8, #1
	b.hi	.LBB16_241
.Ltmp1657:
	.loc	1 2700 19
	ldr	w8, [x19, #296]
	.loc	1 2701 6
	sub	w9, w8, #1
	cmp	w9, #99
	b.hi	.LBB16_242
.Ltmp1658:
	.loc	1 2322 29
	ldr	w11, [x19, #236]
.Ltmp1659:
	.loc	1 0 29 is_stmt 0
	add	w9, w11, #7
	cmp	w11, #0
	csel	w13, w9, w11, lt
.Ltmp1660:
	.loc	1 2329 2 is_stmt 1
	cmp	w11, #8
	b.lt	.LBB16_246
.Ltmp1661:
	.loc	1 0 2 is_stmt 0
	mul	w11, w8, w11
	mov	w14, #34079
	movk	w14, #20971, lsl #16
	.loc	1 2702 50 is_stmt 1
	ldr	x12, [x19, #424]
	mov	w10, wzr
	mov	w9, wzr
	smull	x11, w11, w14
	asr	w13, w13, #3
	lsr	x14, x11, #63
	asr	x15, x11, #37
.Ltmp1662:
	.loc	1 2324 37
	ldr	x11, [x12, #16]
.Ltmp1663:
	.loc	1 0 37 is_stmt 0
	add	w12, w15, w14
.Ltmp1664:
	.loc	1 2323 37 is_stmt 1
	ldr	x14, [x21, #16]
.Ltmp1665:
.LBB16_237:
	.loc	1 2330 21
	ldr	x15, [x14]
.Ltmp1666:
	.loc	1 2331 21
	ldr	x16, [x11]
.Ltmp1667:
	.loc	1 2333 23
	cmp	x15, x16
.Ltmp1668:
	.loc	1 2333 7 is_stmt 0
	cinc	w10, w10, ne
.Ltmp1669:
	.loc	1 2337 7 is_stmt 1
	cmp	w12, w10, lsl #3
	b.lt	.LBB16_267
.Ltmp1670:
	.loc	1 2333 7
	cmp	x15, x16
	.loc	1 2331 30
	add	x11, x11, #8
.Ltmp1671:
	.loc	1 2333 7
	csinc	w9, w9, wzr, eq
.Ltmp1672:
	.loc	1 2330 30
	add	x14, x14, #8
.Ltmp1673:
	.loc	1 2329 16
	subs	w13, w13, #1
.Ltmp1674:
	.loc	1 2329 2 is_stmt 0
	b.ne	.LBB16_237
.Ltmp1675:
	.loc	1 2703 10 is_stmt 1
	cmp	w9, #2
	b.eq	.LBB16_268
.Ltmp1676:
	cbz	w9, .LBB16_246
	b	.LBB16_247
.Ltmp1677:
.LBB16_241:
	.loc	1 2713 11
	sub	w8, w1, #2
	cmp	w8, #14
	b.hi	.LBB16_247
.Ltmp1678:
.LBB16_242:
	.loc	1 2714 65
	ldr	w8, [x19, #236]
.Ltmp1679:
	.loc	1 0 65 is_stmt 0
	add	w9, w8, #7
	cmp	w8, #0
	csel	w9, w9, w8, lt
.Ltmp1680:
	.loc	1 2303 2 is_stmt 1
	cmp	w8, #8
	b.lt	.LBB16_246
.Ltmp1681:
	.loc	1 2714 41
	ldr	x8, [x19, #424]
.Ltmp1682:
	.loc	1 0 41 is_stmt 0
	asr	w9, w9, #3
.Ltmp1683:
	.loc	1 2300 37 is_stmt 1
	ldr	x10, [x21, #16]
.Ltmp1684:
	.loc	1 2301 37
	ldr	x8, [x8, #16]
.Ltmp1685:
.LBB16_244:
	.loc	1 2304 21
	ldr	x11, [x10]
.Ltmp1686:
	.loc	1 2305 21
	ldr	x12, [x8]
.Ltmp1687:
	.loc	1 2307 7
	cmp	x11, x12
	b.ne	.LBB16_247
.Ltmp1688:
	.loc	1 2305 30
	add	x8, x8, #8
.Ltmp1689:
	.loc	1 2304 30
	add	x10, x10, #8
.Ltmp1690:
	.loc	1 2303 16
	subs	w9, w9, #1
.Ltmp1691:
	.loc	1 2303 2 is_stmt 0
	b.ne	.LBB16_244
.Ltmp1692:
.LBB16_246:
	.loc	1 0 0
	adrp	x1, .L.str.77
	ldr	x0, [x19, #312]
	add	x1, x1, :lo12:.L.str.77
	bl	_dev_info
.Ltmp1693:
	str	x21, [x19, #432]
	b	.LBB16_287
.Ltmp1694:
.LBB16_247:
	.loc	1 2723 9 is_stmt 1
	cbz	w27, .LBB16_251
.Ltmp1695:
	.loc	1 2727 26
	ldr	w8, [x19, #292]
.Ltmp1696:
	.loc	1 2727 16 is_stmt 0
	cmp	w8, #1
	b.lt	.LBB16_250
.Ltmp1697:
	.loc	1 0 16
	ldr	w9, [sp, #36]
.Ltmp1698:
	.loc	1 2728 21 is_stmt 1
	add	w9, w9, #1
.Ltmp1699:
	.loc	1 2729 10
	cmp	w9, w8
	str	w9, [sp, #36]
.Ltmp1700:
	b.ge	.LBB16_268
.Ltmp1701:
.LBB16_250:
	.loc	1 0 10 is_stmt 0
	mov	w27, #1
.Ltmp1702:
	.loc	1 2736 36 is_stmt 1
	ldr	w8, [x19, #408]
.Ltmp1703:
	.loc	1 2736 9 is_stmt 0
	cbz	w8, .LBB16_269
	b	.LBB16_275
.Ltmp1704:
.LBB16_251:
	.loc	1 0 9
	str	wzr, [sp, #36]
	mov	w27, #2
.Ltmp1705:
	.loc	1 2736 36
	ldr	w8, [x19, #408]
.Ltmp1706:
	.loc	1 2736 9
	cbz	w8, .LBB16_269
	b	.LBB16_275
.Ltmp1707:
.LBB16_252:
	.loc	1 2493 6 is_stmt 1
	adrp	x1, .L.str.69
	ldr	x0, [x19, #312]
	add	x1, x1, :lo12:.L.str.69
	bl	_dev_info
.Ltmp1708:
	.loc	1 2494 25
	adrp	x8, resume_count_start
.Ltmp1709:
	.loc	1 0 0 is_stmt 0
	str	wzr, [x19, #820]
.Ltmp1710:
	.loc	1 2494 25
	strb	wzr, [x8, :lo12:resume_count_start]
	.loc	1 2495 29 is_stmt 1
	mov	w8, #1
	str	w8, [x19, #800]
	b	.LBB16_260
.Ltmp1711:
.LBB16_253:
	.loc	1 2478 6
	adrp	x1, .L.str.68
	ldr	x0, [x19, #312]
	add	x1, x1, :lo12:.L.str.68
	bl	_dev_info
.Ltmp1712:
	.loc	1 2479 20
	ldr	w8, [x19, #792]
.Ltmp1713:
	.loc	1 2479 10 is_stmt 0
	cmp	w8, #1
	b.ne	.LBB16_255
.Ltmp1714:
	.loc	1 2480 7 is_stmt 1
	mov	w0, #3
	bl	ebc_notify
.Ltmp1715:
.LBB16_255:
	.loc	1 2482 20
	ldr	w8, [x19, #816]
.Ltmp1716:
	.loc	1 2481 33
	str	wzr, [x19, #792]
	.loc	1 2482 10
	cbz	w8, .LBB16_260
.Ltmp1717:
	.loc	1 0 10 is_stmt 0
	mov	w8, #1
.Ltmp1718:
	.loc	1 2483 26 is_stmt 1
	adrp	x9, resume_count_start
	strb	w8, [x9, :lo12:resume_count_start]
	.loc	1 2484 26
	adrp	x9, resume_frame_count
	str	w8, [x9, :lo12:resume_frame_count]
	b	.LBB16_260
.Ltmp1719:
.LBB16_257:
	.loc	1 2468 6
	adrp	x1, .L.str.67
	ldr	x0, [x19, #312]
	add	x1, x1, :lo12:.L.str.67
	bl	_dev_info
.Ltmp1720:
	.loc	1 2469 20
	ldr	w8, [x19, #792]
.Ltmp1721:
	.loc	1 2469 10 is_stmt 0
	cbnz	w8, .LBB16_259
.Ltmp1722:
	.loc	1 2470 7 is_stmt 1
	mov	w0, #2
	bl	ebc_notify
.Ltmp1723:
.LBB16_259:
	.loc	1 2471 25
	adrp	x8, resume_count_start
.Ltmp1724:
	.loc	1 0 0 is_stmt 0
	str	wzr, [x19, #820]
.Ltmp1725:
	.loc	1 2471 25
	strb	wzr, [x8, :lo12:resume_count_start]
	.loc	1 2472 33 is_stmt 1
	mov	w8, #1
	str	w8, [x19, #792]
.Ltmp1726:
.LBB16_260:
	.loc	1 0 0 is_stmt 0
	mov	x0, x21
	bl	ebc_buf_release
.Ltmp1727:
	b	.LBB16_3
.Ltmp1728:
.LBB16_261:
	ldr	x8, [sp, #48]
.Ltmp1729:
	.loc	1 2385 5 is_stmt 1
	adrp	x1, .L.str.61
	add	x1, x1, :lo12:.L.str.61
	b	.LBB16_361
.Ltmp1730:
.LBB16_262:
	.loc	1 2601 38
	ldr	w8, [x19, #408]
.Ltmp1731:
	.loc	1 2600 29
	mov	w9, #1
	str	w9, [x19, #260]
	.loc	1 2601 11
	cbnz	w8, .LBB16_348
.Ltmp1732:
	.loc	1 401 18
	ldr	w8, [x19, #672]
.Ltmp1733:
	.loc	1 401 7 is_stmt 0
	cbnz	w8, .LBB16_265
.Ltmp1734:
	.loc	1 402 31 is_stmt 1
	mov	w8, #1
	ldr	x0, [sp, #8]
	str	w8, [x19, #672]
.Ltmp1735:
	.loc	177 58 2
	bl	__pm_stay_awake
.Ltmp1736:
.LBB16_265:
	.loc	1 406 12
	ldr	x0, [x19, #16]
.Ltmp1737:
	.loc	1 405 30
	mov	w8, #1
	str	w8, [x19, #408]
	.loc	1 406 7
	cbnz	x0, .LBB16_346
.Ltmp1738:
	.loc	1 409 32
	ldr	x0, [x19, #24]
	.loc	1 409 10 is_stmt 0
	bl	regulator_enable
.Ltmp1739:
	mov	w27, w0
.Ltmp1740:
	.loc	1 0 10
	b	.LBB16_347
.Ltmp1741:
.LBB16_267:
	.loc	1 2338 4 is_stmt 1
	adrp	x0, .L.str.92
	mov	w1, w8
	add	x0, x0, :lo12:.L.str.92
	bl	_printk
.Ltmp1742:
.LBB16_268:
	.loc	1 0 4 is_stmt 0
	mov	w1, #2
	str	wzr, [sp, #36]
	mov	w27, #2
	str	w1, [x21, #40]
.Ltmp1743:
	.loc	1 2736 36 is_stmt 1
	ldr	w8, [x19, #408]
.Ltmp1744:
	.loc	1 2736 9 is_stmt 0
	cbnz	w8, .LBB16_275
.Ltmp1745:
.LBB16_269:
	.loc	1 401 18 is_stmt 1
	ldr	w8, [x19, #672]
.Ltmp1746:
	.loc	1 401 7 is_stmt 0
	cbnz	w8, .LBB16_271
.Ltmp1747:
	.loc	1 402 31 is_stmt 1
	mov	w8, #1
	ldr	x0, [sp, #8]
	str	w8, [x19, #672]
.Ltmp1748:
	.loc	177 58 2
	bl	__pm_stay_awake
.Ltmp1749:
.LBB16_271:
	.loc	1 406 12
	ldr	x0, [x19, #16]
.Ltmp1750:
	.loc	1 405 30
	mov	w8, #1
	str	w27, [sp, #20]
.Ltmp1751:
	str	w8, [x19, #408]
	.loc	1 406 7
	cbnz	x0, .LBB16_273
.Ltmp1752:
	.loc	1 409 32
	ldr	x0, [x19, #24]
	.loc	1 409 10 is_stmt 0
	bl	regulator_enable
.Ltmp1753:
	mov	w27, w0
.Ltmp1754:
	.loc	1 0 10
	b	.LBB16_274
.Ltmp1755:
.LBB16_273:
	.loc	172 31 15 is_stmt 1
	ldr	x8, [x0, #32]
	.loc	172 31 9 is_stmt 0
	mov	w1, #1
	blr	x8
.Ltmp1756:
	.loc	172 0 9
	mov	w27, wzr
.Ltmp1757:
.LBB16_274:
	.loc	1 410 24 is_stmt 1
	ldr	x0, [x19, #8]
.Ltmp1758:
	.loc	1 0 24 is_stmt 0
	ldr	x1, [sp, #24]
.Ltmp1759:
	.loc	170 55 15 is_stmt 1
	ldr	x8, [x0, #56]
	.loc	170 55 9 is_stmt 0
	blr	x8
.Ltmp1760:
	.loc	1 411 3 is_stmt 1
	adrp	x1, .L.str.82
	ldr	x0, [x19]
	add	x1, x1, :lo12:.L.str.82
	mov	w2, w27
	bl	_dev_info
.Ltmp1761:
	.loc	1 2739 30
	ldr	w1, [x21, #40]
	ldr	w27, [sp, #20]
.Ltmp1762:
.LBB16_275:
	.loc	1 2739 5 is_stmt 0
	mov	x0, x19
	bl	ebc_lut_update
.Ltmp1763:
	.loc	1 2741 14 is_stmt 1
	ldr	w8, [x22]
.Ltmp1764:
	.loc	1 2741 9 is_stmt 0
	cbnz	w8, .LBB16_279
.Ltmp1765:
	.loc	1 2743 10 is_stmt 1
	bl	ebc_get_dsp_list_enum_num
.Ltmp1766:
	.loc	1 0 0 is_stmt 0
	ldr	w8, [x21, #40]
.Ltmp1767:
	.loc	1 2743 10
	cbnz	w0, .LBB16_330
.Ltmp1768:
	.loc	1 2758 8 is_stmt 1
	cmp	w8, #20
	b.hi	.LBB16_318
.Ltmp1769:
	.loc	1 0 8 is_stmt 0
	mov	w9, #1
	lsl	w8, w9, w8
	mov	w9, #1376256
	tst	w8, w9
	b.eq	.LBB16_318
.Ltmp1770:
.LBB16_279:
	.loc	1 2783 54 is_stmt 1
	ldr	w8, [x19, #320]
	.loc	1 2782 28
	str	x21, [x19, #432]
.Ltmp1771:
	.loc	1 2784 5
	adrp	x1, .L.str.78
	ldr	x0, [x19, #312]
	add	x1, x1, :lo12:.L.str.78
.Ltmp1772:
	.loc	1 2783 27
	strb	w8, [x19, #264]
	.loc	1 2783 29 is_stmt 0
	and	w3, w8, #0xff
.Ltmp1773:
	.loc	1 2784 5 is_stmt 1
	ldr	w2, [x21, #40]
	bl	_dev_info
.Ltmp1774:
	.loc	1 2785 27
	mov	w8, #1
	.loc	1 2787 5
	mov	x0, x19
	.loc	1 2786 24
	str	w27, [x19, #460]
	.loc	1 2785 27
	str	w8, [x19, #260]
	.loc	1 2787 5
	bl	ebc_frame_start
.Ltmp1775:
	.loc	1 2788 39
	adrp	x8, jiffies
	ldr	x8, [x8, :lo12:jiffies]
.Ltmp1776:
	.loc	1 0 39 is_stmt 0
	ldr	x0, [sp, #40]
	.loc	1 2788 47
	add	x1, x8, #750
	.loc	1 2788 5
	bl	mod_timer
.Ltmp1777:
	.loc	1 2789 5 is_stmt 1
	ldr	w8, [x19, #260]
.Ltmp1778:
	.loc	1 2789 5 is_stmt 0
	cbz	w8, .LBB16_285
.Ltmp1779:
	.loc	1 2789 5
	sub	x0, x29, #48
	mov	w1, wzr
	stp	xzr, xzr, [x29, #-24]
	stp	xzr, xzr, [x29, #-40]
	stur	xzr, [x29, #-48]
.Ltmp1780:
	bl	init_wait_entry
.Ltmp1781:
.LBB16_281:
	.loc	1 2789 5
	adrp	x0, ebc_thread_wq
	sub	x1, x29, #48
	add	x0, x0, :lo12:ebc_thread_wq
	mov	w2, #1
	bl	prepare_to_wait_event
.Ltmp1782:
	.loc	1 2789 5
	ldr	w8, [x24]
.Ltmp1783:
	.loc	1 2789 5
	cbz	w8, .LBB16_284
.Ltmp1784:
	cbnz	x0, .LBB16_285
.Ltmp1785:
	bl	schedule
.Ltmp1786:
	.loc	1 0 5
	b	.LBB16_281
.Ltmp1787:
.LBB16_284:
	.loc	1 2789 5
	adrp	x0, ebc_thread_wq
	sub	x1, x29, #48
	add	x0, x0, :lo12:ebc_thread_wq
	bl	finish_wait
.Ltmp1788:
.LBB16_285:
	.loc	1 2790 39 is_stmt 1
	adrp	x8, jiffies
	.loc	1 2790 47 is_stmt 0
	mov	w9, #335544320
	.loc	1 2790 39
	ldr	x8, [x8, :lo12:jiffies]
.Ltmp1789:
	.loc	1 0 39
	ldr	x0, [sp, #40]
	.loc	1 2790 47
	add	x1, x8, x9
.Ltmp1790:
.LBB16_286:
	.loc	1 0 0
	bl	mod_timer
.Ltmp1791:
.LBB16_287:
	.loc	1 2802 18 is_stmt 1
	ldr	x8, [x19, #432]
	.loc	1 2802 32 is_stmt 0
	ldr	w8, [x8, #40]
.Ltmp1792:
	.loc	1 2802 8
	cmp	w8, #18
	b.eq	.LBB16_291
.Ltmp1793:
	cmp	w8, #20
	b.eq	.LBB16_294
.Ltmp1794:
.LBB16_289:
	.loc	1 2815 18 is_stmt 1
	ldr	w8, [x19, #676]
.Ltmp1795:
	.loc	1 2815 8 is_stmt 0
	cbz	w8, .LBB16_1
.Ltmp1796:
	.loc	1 2816 31 is_stmt 1
	ldr	x0, [x19, #424]
	.loc	1 2816 5 is_stmt 0
	bl	ebc_buf_release
.Ltmp1797:
	.loc	1 0 5
	b	.LBB16_2
.Ltmp1798:
.LBB16_291:
	.loc	1 2807 5 is_stmt 1
	adrp	x1, .L.str.81
	ldr	x0, [x19, #312]
	add	x1, x1, :lo12:.L.str.81
	bl	_dev_info
.Ltmp1799:
	.loc	1 2808 19
	ldr	w8, [x19, #792]
.Ltmp1800:
	.loc	1 2808 9 is_stmt 0
	cbnz	w8, .LBB16_293
.Ltmp1801:
	.loc	1 2809 6 is_stmt 1
	mov	w0, #2
	bl	ebc_notify
.Ltmp1802:
.LBB16_293:
	.loc	1 2810 32
	mov	w8, #1
	.loc	1 2812 32
	str	wzr, [x19, #820]
	.loc	1 2810 32
	str	w8, [x19, #792]
	.loc	1 2811 24
	adrp	x8, resume_count_start
	strb	wzr, [x8, :lo12:resume_count_start]
	b	.LBB16_289
.Ltmp1803:
.LBB16_294:
	.loc	1 2805 5
	adrp	x1, .L.str.80
	ldr	x0, [x19, #312]
.Ltmp1804:
	.loc	1 2803 28
	mov	w8, #1
.Ltmp1805:
	.loc	1 2805 5
	add	x1, x1, :lo12:.L.str.80
.Ltmp1806:
	.loc	1 2804 32
	str	wzr, [x19, #820]
	.loc	1 2803 28
	str	w8, [x19, #800]
.Ltmp1807:
	.loc	1 2805 5
	bl	_dev_info
.Ltmp1808:
	.loc	1 0 5 is_stmt 0
	b	.LBB16_289
.Ltmp1809:
.LBB16_295:
	ldr	x8, [sp, #48]
.Ltmp1810:
	.loc	1 2793 5 is_stmt 1
	adrp	x1, .L.str.79
	add	x1, x1, :lo12:.L.str.79
	ldr	x0, [x8]
	bl	_dev_err
.Ltmp1811:
	.loc	1 0 5 is_stmt 0
	b	.LBB16_362
.Ltmp1812:
.LBB16_296:
	.loc	1 2409 36 is_stmt 1
	ldr	w8, [x19, #408]
.Ltmp1813:
	.loc	1 2408 27
	mov	w9, #1
	str	w9, [x19, #260]
	.loc	1 2409 9
	cbnz	w8, .LBB16_376
.Ltmp1814:
	.loc	1 401 18
	ldr	w8, [x19, #672]
.Ltmp1815:
	.loc	1 401 7 is_stmt 0
	cbnz	w8, .LBB16_299
.Ltmp1816:
	.loc	1 402 31 is_stmt 1
	mov	w8, #1
	ldr	x0, [sp, #8]
	str	w8, [x19, #672]
.Ltmp1817:
	.loc	177 58 2
	bl	__pm_stay_awake
.Ltmp1818:
.LBB16_299:
	.loc	1 406 12
	ldr	x0, [x19, #16]
.Ltmp1819:
	.loc	1 405 30
	mov	w8, #1
	str	w8, [x19, #408]
	.loc	1 406 7
	cbnz	x0, .LBB16_374
.Ltmp1820:
	.loc	1 409 32
	ldr	x0, [x19, #24]
	.loc	1 409 10 is_stmt 0
	bl	regulator_enable
.Ltmp1821:
	mov	w21, w0
.Ltmp1822:
	.loc	1 0 10
	b	.LBB16_375
.Ltmp1823:
.LBB16_301:
	ldr	x8, [sp, #48]
.Ltmp1824:
	.loc	1 2579 8 is_stmt 1
	adrp	x1, .L.str.62
	add	x1, x1, :lo12:.L.str.62
	ldr	x0, [x8]
	bl	_dev_info
.Ltmp1825:
	.loc	1 2580 8
	ldr	w8, [x24]
.Ltmp1826:
	.loc	1 2580 8 is_stmt 0
	cbz	w8, .LBB16_358
.Ltmp1827:
	.loc	1 2580 8
	sub	x0, x29, #48
	mov	w1, wzr
	stp	xzr, xzr, [x29, #-24]
	stp	xzr, xzr, [x29, #-40]
	stur	xzr, [x29, #-48]
.Ltmp1828:
	bl	init_wait_entry
.Ltmp1829:
.LBB16_303:
	.loc	1 2580 8
	adrp	x0, ebc_thread_wq
	sub	x1, x29, #48
	add	x0, x0, :lo12:ebc_thread_wq
	mov	w2, #1
	bl	prepare_to_wait_event
.Ltmp1830:
	.loc	1 2580 8
	ldr	w8, [x24]
.Ltmp1831:
	.loc	1 2580 8
	cbz	w8, .LBB16_357
.Ltmp1832:
	cbnz	x0, .LBB16_358
.Ltmp1833:
	bl	schedule
.Ltmp1834:
	.loc	1 0 8
	b	.LBB16_303
.Ltmp1835:
.LBB16_306:
	ldr	x8, [sp, #48]
.Ltmp1836:
	.loc	1 2637 6 is_stmt 1
	adrp	x1, .L.str.62
	add	x1, x1, :lo12:.L.str.62
	ldr	x0, [x8]
	bl	_dev_info
.Ltmp1837:
	.loc	1 2638 6
	ldr	w8, [x24]
.Ltmp1838:
	.loc	1 2638 6 is_stmt 0
	cbz	w8, .LBB16_336
.Ltmp1839:
	.loc	1 2638 6
	sub	x0, x29, #48
	mov	w1, wzr
	stp	xzr, xzr, [x29, #-24]
	stp	xzr, xzr, [x29, #-40]
	stur	xzr, [x29, #-48]
.Ltmp1840:
	bl	init_wait_entry
.Ltmp1841:
.LBB16_308:
	.loc	1 2638 6
	adrp	x0, ebc_thread_wq
	sub	x1, x29, #48
	add	x0, x0, :lo12:ebc_thread_wq
	mov	w2, #1
	bl	prepare_to_wait_event
.Ltmp1842:
	.loc	1 2638 6
	ldr	w8, [x24]
.Ltmp1843:
	.loc	1 2638 6
	cbz	w8, .LBB16_335
.Ltmp1844:
	cbnz	x0, .LBB16_336
.Ltmp1845:
	bl	schedule
.Ltmp1846:
	.loc	1 0 6
	b	.LBB16_308
.Ltmp1847:
.LBB16_311:
	ldr	x8, [sp, #48]
.Ltmp1848:
	.loc	1 2643 6 is_stmt 1
	adrp	x1, .L.str.62
	add	x1, x1, :lo12:.L.str.62
	ldr	x0, [x8]
	bl	_dev_info
.Ltmp1849:
	.loc	1 2644 6
	ldr	w8, [x24]
.Ltmp1850:
	.loc	1 2644 6 is_stmt 0
	cbz	w8, .LBB16_336
.Ltmp1851:
	.loc	1 2644 6
	sub	x0, x29, #48
	mov	w1, wzr
	stp	xzr, xzr, [x29, #-24]
	stp	xzr, xzr, [x29, #-40]
	stur	xzr, [x29, #-48]
.Ltmp1852:
	bl	init_wait_entry
.Ltmp1853:
.LBB16_313:
	.loc	1 2644 6
	adrp	x0, ebc_thread_wq
	sub	x1, x29, #48
	add	x0, x0, :lo12:ebc_thread_wq
	mov	w2, #1
	bl	prepare_to_wait_event
.Ltmp1854:
	.loc	1 2644 6
	ldr	w8, [x24]
.Ltmp1855:
	.loc	1 2644 6
	cbz	w8, .LBB16_335
.Ltmp1856:
	cbnz	x0, .LBB16_336
.Ltmp1857:
	bl	schedule
.Ltmp1858:
	.loc	1 0 6
	b	.LBB16_313
.Ltmp1859:
.LBB16_316:
	.loc	1 2850 5 is_stmt 1
	adrp	x0, ebc_thread_wq
	sub	x1, x29, #48
	add	x0, x0, :lo12:ebc_thread_wq
	bl	finish_wait
.Ltmp1860:
.LBB16_317:
	.loc	1 2851 33
	str	wzr, [x19, #308]
	b	.LBB16_3
.Ltmp1861:
.LBB16_318:
	.loc	1 2760 21
	ldr	w2, [x19, #456]
.Ltmp1862:
	.loc	1 2757 17
	cmp	w2, #1
	b.lt	.LBB16_279
.Ltmp1863:
	.loc	1 2761 7
	adrp	x1, .L.str.72
	ldr	x0, [x19, #312]
	add	x1, x1, :lo12:.L.str.72
	bl	_dev_info
.Ltmp1864:
	.loc	1 2762 7
	ldr	w0, [x19, #456]
.Ltmp1865:
	.loc	203 370 10
	bl	__msecs_to_jiffies
.Ltmp1866:
	.loc	1 2762 7
	ldr	w10, [x19, #804]
	cmp	w10, #0
	cset	w8, eq
.Ltmp1867:
	cmp	x0, #0
	cset	w9, eq
.Ltmp1868:
	.loc	1 2762 7 is_stmt 0
	cbnz	w10, .LBB16_328
.Ltmp1869:
	.loc	1 0 0
	and	w8, w8, w9
	.loc	1 2762 7
	tbnz	w8, #0, .LBB16_328
.Ltmp1870:
	.loc	1 2762 7
	ldr	w0, [x19, #456]
	str	w27, [sp, #20]
	stp	xzr, xzr, [x29, #-24]
	stp	xzr, xzr, [x29, #-40]
	stur	xzr, [x29, #-48]
.Ltmp1871:
	.loc	203 370 10 is_stmt 1
	bl	__msecs_to_jiffies
.Ltmp1872:
	mov	x27, x0
.Ltmp1873:
	.loc	1 2762 7
	sub	x0, x29, #48
	mov	w1, wzr
	bl	init_wait_entry
.Ltmp1874:
	.loc	1 2762 7 is_stmt 0
	adrp	x0, ebc_thread_wq
	sub	x1, x29, #48
	add	x0, x0, :lo12:ebc_thread_wq
	mov	w2, #1
	bl	prepare_to_wait_event
.Ltmp1875:
	.loc	1 2762 7
	ldr	w9, [x19, #804]
.Ltmp1876:
	.loc	1 2762 7
	cmp	x27, #0
.Ltmp1877:
	.loc	1 2762 7
	ccmp	w9, #0, #4, eq
.Ltmp1878:
	.loc	1 2762 7
	csinc	x8, x27, xzr, eq
.Ltmp1879:
	.loc	1 2762 7
	cbnz	w9, .LBB16_326
.Ltmp1880:
	cbz	x8, .LBB16_326
.Ltmp1881:
.LBB16_323:
	cbnz	x0, .LBB16_327
.Ltmp1882:
	mov	x0, x8
.Ltmp1883:
	bl	schedule_timeout
.Ltmp1884:
	mov	x27, x0
.Ltmp1885:
	adrp	x0, ebc_thread_wq
	sub	x1, x29, #48
	add	x0, x0, :lo12:ebc_thread_wq
	mov	w2, #1
	bl	prepare_to_wait_event
.Ltmp1886:
	.loc	1 2762 7
	ldr	w9, [x19, #804]
.Ltmp1887:
	.loc	1 2762 7
	cmp	x27, #0
.Ltmp1888:
	.loc	1 2762 7
	ccmp	w9, #0, #4, eq
.Ltmp1889:
	.loc	1 2762 7
	csinc	x8, x27, xzr, eq
.Ltmp1890:
	.loc	1 2762 7
	cbnz	w9, .LBB16_326
.Ltmp1891:
	cbnz	x8, .LBB16_323
.Ltmp1892:
.LBB16_326:
	.loc	1 2762 7
	adrp	x0, ebc_thread_wq
	sub	x1, x29, #48
	add	x0, x0, :lo12:ebc_thread_wq
	bl	finish_wait
.Ltmp1893:
.LBB16_327:
	.loc	1 0 7
	ldr	w27, [sp, #20]
.Ltmp1894:
.LBB16_328:
	.loc	1 2764 11 is_stmt 1
	bl	ebc_get_dsp_list_enum_num
.Ltmp1895:
	.loc	1 2764 11 is_stmt 0
	cbz	w0, .LBB16_279
.Ltmp1896:
	.loc	1 2765 17 is_stmt 1
	ldr	w8, [x21, #40]
.Ltmp1897:
.LBB16_330:
	.loc	1 0 0 is_stmt 0
	cmp	w8, #21
	b.eq	.LBB16_332
.Ltmp1898:
	cmp	w8, #19
	b.ne	.LBB16_334
.Ltmp1899:
.LBB16_332:
	ldr	x8, [sp, #48]
	adrp	x1, .L.str.70
	add	x1, x1, :lo12:.L.str.70
	ldr	x0, [x8]
	bl	_dev_info
.Ltmp1900:
.LBB16_333:
	mov	x0, x21
	bl	ebc_buf_release
.Ltmp1901:
	mov	w22, #1
.Ltmp1902:
	b	.LBB16_3
.Ltmp1903:
.LBB16_334:
	ldr	w8, [x22]
	cbnz	w8, .LBB16_279
	b	.LBB16_360
.Ltmp1904:
.LBB16_335:
	adrp	x0, ebc_thread_wq
	sub	x1, x29, #48
	add	x0, x0, :lo12:ebc_thread_wq
	bl	finish_wait
.Ltmp1905:
.LBB16_336:
	ldr	x8, [sp, #48]
	adrp	x1, .L.str.63
	add	x1, x1, :lo12:.L.str.63
	ldr	x0, [x8]
	bl	_dev_info
.Ltmp1906:
	b	.LBB16_56
.Ltmp1907:
.LBB16_337:
	.loc	1 2562 8 is_stmt 1
	adrp	x1, .L.str.72
	ldr	x0, [x19, #312]
	add	x1, x1, :lo12:.L.str.72
.Ltmp1908:
	.loc	1 2561 37
	str	wzr, [x19, #308]
.Ltmp1909:
	.loc	1 2562 8
	bl	_dev_info
.Ltmp1910:
	.loc	1 2563 8
	ldr	w0, [x19, #456]
.Ltmp1911:
	.loc	203 370 10
	bl	__msecs_to_jiffies
.Ltmp1912:
	.loc	1 2563 8
	ldr	w10, [x19, #308]
	cmp	w10, #0
	cset	w8, eq
.Ltmp1913:
	cmp	x0, #0
	cset	w9, eq
.Ltmp1914:
	.loc	1 2563 8 is_stmt 0
	cbnz	w10, .LBB16_345
.Ltmp1915:
	.loc	1 0 0
	and	w8, w8, w9
	.loc	1 2563 8
	tbnz	w8, #0, .LBB16_345
.Ltmp1916:
	.loc	1 2563 8
	ldr	w0, [x19, #456]
	stp	xzr, xzr, [x29, #-24]
	stp	xzr, xzr, [x29, #-40]
	stur	xzr, [x29, #-48]
.Ltmp1917:
	.loc	203 370 10 is_stmt 1
	bl	__msecs_to_jiffies
.Ltmp1918:
	mov	x27, x0
.Ltmp1919:
	.loc	1 2563 8
	sub	x0, x29, #48
	mov	w1, wzr
	bl	init_wait_entry
.Ltmp1920:
	.loc	1 2563 8 is_stmt 0
	adrp	x0, ebc_thread_wq
	sub	x1, x29, #48
	add	x0, x0, :lo12:ebc_thread_wq
	mov	w2, #1
	bl	prepare_to_wait_event
.Ltmp1921:
	.loc	1 2563 8
	ldr	w9, [x19, #308]
.Ltmp1922:
	.loc	1 2563 8
	cmp	x27, #0
.Ltmp1923:
	.loc	1 2563 8
	ccmp	w9, #0, #4, eq
.Ltmp1924:
	.loc	1 2563 8
	csinc	x8, x27, xzr, eq
.Ltmp1925:
	.loc	1 2563 8
	cbnz	w9, .LBB16_344
.Ltmp1926:
	cbz	x8, .LBB16_344
.Ltmp1927:
.LBB16_341:
	cbnz	x0, .LBB16_345
.Ltmp1928:
	mov	x0, x8
.Ltmp1929:
	bl	schedule_timeout
.Ltmp1930:
	mov	x27, x0
.Ltmp1931:
	adrp	x0, ebc_thread_wq
	sub	x1, x29, #48
	add	x0, x0, :lo12:ebc_thread_wq
	mov	w2, #1
	bl	prepare_to_wait_event
.Ltmp1932:
	.loc	1 2563 8
	ldr	w9, [x19, #308]
.Ltmp1933:
	.loc	1 2563 8
	cmp	x27, #0
.Ltmp1934:
	.loc	1 2563 8
	ccmp	w9, #0, #4, eq
.Ltmp1935:
	.loc	1 2563 8
	csinc	x8, x27, xzr, eq
.Ltmp1936:
	.loc	1 2563 8
	cbnz	w9, .LBB16_344
.Ltmp1937:
	cbnz	x8, .LBB16_341
.Ltmp1938:
.LBB16_344:
	.loc	1 2563 8
	adrp	x0, ebc_thread_wq
	sub	x1, x29, #48
	add	x0, x0, :lo12:ebc_thread_wq
	bl	finish_wait
.Ltmp1939:
.LBB16_345:
	.loc	1 2565 12 is_stmt 1
	bl	ebc_get_dsp_list_enum_num
.Ltmp1940:
	.loc	1 2565 12 is_stmt 0
	cbz	w0, .LBB16_102
	b	.LBB16_360
.Ltmp1941:
.LBB16_346:
	.loc	172 31 15 is_stmt 1
	ldr	x8, [x0, #32]
	.loc	172 31 9 is_stmt 0
	mov	w1, #1
	blr	x8
.Ltmp1942:
	.loc	172 0 9
	mov	w27, wzr
.Ltmp1943:
.LBB16_347:
	.loc	1 410 24 is_stmt 1
	ldr	x0, [x19, #8]
.Ltmp1944:
	.loc	1 0 24 is_stmt 0
	ldr	x1, [sp, #24]
.Ltmp1945:
	.loc	170 55 15 is_stmt 1
	ldr	x8, [x0, #56]
	.loc	170 55 9 is_stmt 0
	blr	x8
.Ltmp1946:
	.loc	1 411 3 is_stmt 1
	adrp	x1, .L.str.82
	ldr	x0, [x19]
	add	x1, x1, :lo12:.L.str.82
	mov	w2, w27
	bl	_dev_info
.Ltmp1947:
.LBB16_348:
	.loc	1 2603 32
	ldr	w1, [x21, #40]
	.loc	1 2603 7 is_stmt 0
	mov	x0, x19
	bl	ebc_lut_update
.Ltmp1948:
	.loc	1 2604 56 is_stmt 1
	ldr	w8, [x19, #320]
.Ltmp1949:
	.loc	1 2606 7
	adrp	x1, .L.str.73
	ldr	x9, [x19, #432]
	add	x1, x1, :lo12:.L.str.73
	ldr	x0, [x19, #312]
.Ltmp1950:
	.loc	1 2605 32
	strh	w8, [x19, #264]
.Ltmp1951:
	.loc	1 2606 7
	and	w3, w8, #0xff
	ldr	w2, [x9, #40]
	bl	_dev_info
.Ltmp1952:
	.loc	1 0 0 is_stmt 0
	ldp	x4, x0, [x19, #384]
	ldp	x1, x2, [x19, #360]
	.loc	1 1606 13 is_stmt 1
	ldr	w8, [x19, #204]
	.loc	1 0 0 is_stmt 0
	ldr	x3, [x19, #376]
.Ltmp1953:
	.loc	1 1606 6
	cbz	w8, .LBB16_353
.Ltmp1954:
	.loc	1 0 6
	ldr	x5, [sp, #56]
.Ltmp1955:
	.loc	1 1607 3 is_stmt 1
	mov	w6, #1
	bl	get_overlay_image2
.Ltmp1956:
	.loc	1 1622 16
	ldr	w8, [x19, #268]
.Ltmp1957:
	.loc	1 1622 6 is_stmt 0
	cbz	w8, .LBB16_354
.Ltmp1958:
.LBB16_350:
	.loc	1 1623 34 is_stmt 1
	ldr	w8, [x19, #408]
.Ltmp1959:
	.loc	1 1623 7 is_stmt 0
	cbz	w8, .LBB16_382
.Ltmp1960:
.LBB16_351:
	.loc	1 0 0
	ldp	x1, x2, [x19, #360]
	ldp	x3, x4, [x19, #376]
	.loc	1 1625 14 is_stmt 1
	ldr	w8, [x19, #204]
	.loc	1 0 0 is_stmt 0
	ldr	x0, [x19, #400]
.Ltmp1961:
	.loc	1 1625 7
	cbz	w8, .LBB16_355
.Ltmp1962:
	.loc	1 0 7
	ldr	x5, [sp, #56]
.Ltmp1963:
	.loc	1 1626 4 is_stmt 1
	mov	w6, #1
	bl	get_overlay_image2
.Ltmp1964:
	.loc	1 0 4 is_stmt 0
	b	.LBB16_356
.Ltmp1965:
.LBB16_353:
	ldr	x5, [sp, #56]
.Ltmp1966:
	.loc	1 1615 3 is_stmt 1
	mov	w6, #1
	bl	get_overlay_image
.Ltmp1967:
	.loc	1 1622 16
	ldr	w8, [x19, #268]
.Ltmp1968:
	.loc	1 1622 6 is_stmt 0
	cbnz	w8, .LBB16_350
.Ltmp1969:
.LBB16_354:
	.loc	1 1645 3 is_stmt 1
	adrp	x1, .L.str.93
	adrp	x2, .L__func__.ebc_overlay_bg_frame_start
	ldr	x0, [x19, #312]
.Ltmp1970:
	.loc	1 1644 31
	mov	w8, #1
.Ltmp1971:
	.loc	1 1645 3
	add	x1, x1, :lo12:.L.str.93
	add	x2, x2, :lo12:.L__func__.ebc_overlay_bg_frame_start
.Ltmp1972:
	.loc	1 1643 25
	str	wzr, [x19, #260]
	.loc	1 1644 31
	str	w8, [x19, #808]
.Ltmp1973:
	.loc	1 1645 3
	bl	_dev_info
.Ltmp1974:
	.loc	1 0 3 is_stmt 0
	b	.LBB16_219
.Ltmp1975:
.LBB16_355:
	ldr	x5, [sp, #56]
.Ltmp1976:
	.loc	1 1634 4 is_stmt 1
	mov	w6, #1
	bl	get_overlay_image
.Ltmp1977:
.LBB16_356:
	.loc	1 1588 36
	ldr	x0, [x19, #40]
	.loc	1 1588 2 is_stmt 0
	mov	w3, #1
	.loc	1 1588 46
	ldr	x1, [x19, #72]
.Ltmp1978:
	.loc	1 1597 24 is_stmt 1
	str	wzr, [x19, #112]
.Ltmp1979:
	.loc	1 1588 66
	ldrsw	x2, [x19, #240]
	.loc	1 1588 2 is_stmt 0
	bl	dma_sync_single_for_device
.Ltmp1980:
	.loc	1 1589 31 is_stmt 1
	ldr	x0, [x19, #48]
.Ltmp1981:
	.loc	170 66 9
	mov	w1, wzr
	mov	w2, wzr
	mov	w3, wzr
	mov	w4, wzr
	.loc	170 66 15 is_stmt 0
	ldr	x8, [x0, #72]
	.loc	170 66 9
	blr	x8
.Ltmp1982:
	.loc	1 1590 33 is_stmt 1
	ldr	x0, [x19, #48]
.Ltmp1983:
	.loc	170 71 2
	mov	w2, wzr
.Ltmp1984:
	.loc	1 1590 44
	ldr	w1, [x19, #72]
.Ltmp1985:
	.loc	170 71 8
	ldr	x8, [x0, #80]
	.loc	170 71 2 is_stmt 0
	blr	x8
.Ltmp1986:
	.loc	1 1591 30 is_stmt 1
	ldr	x0, [x19, #48]
.Ltmp1987:
	.loc	170 86 2
	mov	w1, #1
	.loc	170 86 8 is_stmt 0
	ldr	x8, [x0, #112]
	.loc	170 86 2
	blr	x8
.Ltmp1988:
	.loc	1 1592 37 is_stmt 1
	ldr	w8, [x19, #112]
	.loc	1 1592 28 is_stmt 0
	mov	w9, #1
	sub	w8, w9, w8
	.loc	1 1592 24
	str	w8, [x19, #112]
	b	.LBB16_219
.Ltmp1989:
.LBB16_357:
	.loc	1 2580 8 is_stmt 1
	adrp	x0, ebc_thread_wq
	sub	x1, x29, #48
	add	x0, x0, :lo12:ebc_thread_wq
	bl	finish_wait
.Ltmp1990:
.LBB16_358:
	.loc	1 2581 12
	bl	ebc_get_dsp_list_enum_num
.Ltmp1991:
	.loc	1 2581 40 is_stmt 0
	cbz	w0, .LBB16_363
.Ltmp1992:
	.loc	1 2581 48
	ldr	w8, [x22]
.Ltmp1993:
	.loc	1 2581 12
	cbnz	w8, .LBB16_363
.Ltmp1994:
.LBB16_360:
	.loc	1 0 12
	ldr	x8, [sp, #48]
	adrp	x1, .L.str.71
	add	x1, x1, :lo12:.L.str.71
.Ltmp1995:
.LBB16_361:
	ldr	x0, [x8]
	bl	_dev_info
.Ltmp1996:
.LBB16_362:
	mov	x0, x21
	bl	ebc_buf_release
.Ltmp1997:
	mov	w22, wzr
	b	.LBB16_3
.Ltmp1998:
.LBB16_363:
	ldr	x8, [sp, #48]
.Ltmp1999:
	.loc	1 2587 8 is_stmt 1
	adrp	x1, .L.str.63
	add	x1, x1, :lo12:.L.str.63
	ldr	x0, [x8]
	bl	_dev_info
.Ltmp2000:
	.loc	1 0 8 is_stmt 0
	b	.LBB16_218
.Ltmp2001:
.LBB16_364:
	ldr	x8, [sp, #48]
.Ltmp2002:
	.loc	1 2532 7 is_stmt 1
	adrp	x1, .L.str.62
	add	x1, x1, :lo12:.L.str.62
	ldr	x0, [x8]
	bl	_dev_info
.Ltmp2003:
	.loc	1 2533 7
	ldr	w8, [x24]
.Ltmp2004:
	.loc	1 2533 7 is_stmt 0
	cbz	w8, .LBB16_379
.Ltmp2005:
	.loc	1 2533 7
	sub	x0, x29, #48
	mov	w1, wzr
	stp	xzr, xzr, [x29, #-24]
	stp	xzr, xzr, [x29, #-40]
	stur	xzr, [x29, #-48]
.Ltmp2006:
	bl	init_wait_entry
.Ltmp2007:
.LBB16_366:
	.loc	1 2533 7
	adrp	x0, ebc_thread_wq
	sub	x1, x29, #48
	add	x0, x0, :lo12:ebc_thread_wq
	mov	w2, #1
	bl	prepare_to_wait_event
.Ltmp2008:
	.loc	1 2533 7
	ldr	w8, [x24]
.Ltmp2009:
	.loc	1 2533 7
	cbz	w8, .LBB16_378
.Ltmp2010:
	cbnz	x0, .LBB16_379
.Ltmp2011:
	bl	schedule
.Ltmp2012:
	.loc	1 0 7
	b	.LBB16_366
.Ltmp2013:
.LBB16_369:
	ldr	x8, [sp, #48]
.Ltmp2014:
	.loc	1 2395 5 is_stmt 1
	adrp	x1, .L.str.62
	add	x1, x1, :lo12:.L.str.62
	ldr	x0, [x8]
	bl	_dev_info
.Ltmp2015:
	.loc	1 2396 5
	ldr	w8, [x24]
.Ltmp2016:
	.loc	1 2396 5 is_stmt 0
	cbz	w8, .LBB16_381
.Ltmp2017:
	.loc	1 2396 5
	sub	x0, x29, #48
	mov	w1, wzr
	stp	xzr, xzr, [x29, #-24]
	stp	xzr, xzr, [x29, #-40]
	stur	xzr, [x29, #-48]
.Ltmp2018:
	bl	init_wait_entry
.Ltmp2019:
.LBB16_371:
	.loc	1 2396 5
	adrp	x0, ebc_thread_wq
	sub	x1, x29, #48
	add	x0, x0, :lo12:ebc_thread_wq
	mov	w2, #1
	bl	prepare_to_wait_event
.Ltmp2020:
	.loc	1 2396 5
	ldr	w8, [x24]
.Ltmp2021:
	.loc	1 2396 5
	cbz	w8, .LBB16_380
.Ltmp2022:
	cbnz	x0, .LBB16_381
.Ltmp2023:
	bl	schedule
.Ltmp2024:
	.loc	1 0 5
	b	.LBB16_371
.Ltmp2025:
.LBB16_374:
	.loc	172 31 15 is_stmt 1
	ldr	x8, [x0, #32]
	.loc	172 31 9 is_stmt 0
	mov	w1, #1
	blr	x8
.Ltmp2026:
	.loc	172 0 9
	mov	w21, wzr
.Ltmp2027:
.LBB16_375:
	.loc	1 410 24 is_stmt 1
	ldr	x0, [x19, #8]
.Ltmp2028:
	.loc	1 0 24 is_stmt 0
	ldr	x1, [sp, #24]
.Ltmp2029:
	.loc	170 55 15 is_stmt 1
	ldr	x8, [x0, #56]
	.loc	170 55 9 is_stmt 0
	blr	x8
.Ltmp2030:
	.loc	1 411 3 is_stmt 1
	adrp	x1, .L.str.82
	ldr	x0, [x19]
	add	x1, x1, :lo12:.L.str.82
	mov	w2, w21
	bl	_dev_info
.Ltmp2031:
.LBB16_376:
	.loc	1 2411 5
	mov	x0, x19
	mov	w1, #1
	bl	ebc_lut_update
.Ltmp2032:
	.loc	1 2413 54
	ldr	w8, [x19, #320]
.Ltmp2033:
	.loc	1 2415 5
	adrp	x1, .L.str.64
	ldr	x0, [x19, #312]
	add	x1, x1, :lo12:.L.str.64
	and	w2, w8, #0xff
	ubfx	w3, w8, #8, #8
.Ltmp2034:
	.loc	1 2414 30
	strh	w8, [x19, #264]
.Ltmp2035:
	.loc	1 2415 5
	bl	_dev_info
.Ltmp2036:
	.loc	1 2416 5
	mov	x0, x19
	bl	ebc_frame_start
.Ltmp2037:
	.loc	1 2420 18
	ldr	x0, [x19, #440]
.Ltmp2038:
	.loc	1 2420 8 is_stmt 0
	cbnz	x0, .LBB16_117
	b	.LBB16_118
.Ltmp2039:
.LBB16_377:
	.loc	1 2338 4 is_stmt 1
	adrp	x0, .L.str.92
	add	x0, x0, :lo12:.L.str.92
	bl	_printk
.Ltmp2040:
	.loc	1 2541 23
	mov	w8, #21
	str	w8, [x21, #40]
	.loc	1 2542 22
	mov	w8, #1
	str	w8, [x21, #64]
.Ltmp2041:
	.loc	1 2543 13
	bl	ebc_get_dsp_list_enum_num
.Ltmp2042:
	.loc	1 2543 13 is_stmt 0
	cbz	w0, .LBB16_50
	b	.LBB16_332
.Ltmp2043:
.LBB16_378:
	.loc	1 2533 7 is_stmt 1
	adrp	x0, ebc_thread_wq
	sub	x1, x29, #48
	add	x0, x0, :lo12:ebc_thread_wq
	bl	finish_wait
.Ltmp2044:
.LBB16_379:
	.loc	1 0 7 is_stmt 0
	ldr	x8, [sp, #48]
.Ltmp2045:
	.loc	1 2534 7 is_stmt 1
	adrp	x1, .L.str.63
	add	x1, x1, :lo12:.L.str.63
	ldr	x0, [x8]
	bl	_dev_info
.Ltmp2046:
	.loc	1 2536 15
	ldr	w8, [x22]
	cbnz	w8, .LBB16_102
	b	.LBB16_95
.Ltmp2047:
.LBB16_380:
	.loc	1 2396 5
	adrp	x0, ebc_thread_wq
	sub	x1, x29, #48
	add	x0, x0, :lo12:ebc_thread_wq
	bl	finish_wait
.Ltmp2048:
.LBB16_381:
	.loc	1 0 5 is_stmt 0
	ldr	x8, [sp, #48]
.Ltmp2049:
	.loc	1 2397 5 is_stmt 1
	adrp	x1, .L.str.63
	add	x1, x1, :lo12:.L.str.63
	ldr	x0, [x8]
	bl	_dev_info
.Ltmp2050:
	.loc	1 0 5 is_stmt 0
	b	.LBB16_114
.Ltmp2051:
.LBB16_382:
	.loc	1 401 18 is_stmt 1
	ldr	w8, [x19, #672]
.Ltmp2052:
	.loc	1 401 7 is_stmt 0
	cbnz	w8, .LBB16_384
.Ltmp2053:
	.loc	1 402 31 is_stmt 1
	mov	w8, #1
	ldr	x0, [sp, #8]
	str	w8, [x19, #672]
.Ltmp2054:
	.loc	177 58 2
	bl	__pm_stay_awake
.Ltmp2055:
.LBB16_384:
	.loc	1 406 12
	ldr	x0, [x19, #16]
.Ltmp2056:
	.loc	1 405 30
	mov	w8, #1
	str	w8, [x19, #408]
	.loc	1 406 7
	cbnz	x0, .LBB16_386
.Ltmp2057:
	.loc	1 409 32
	ldr	x0, [x19, #24]
	.loc	1 409 10 is_stmt 0
	bl	regulator_enable
.Ltmp2058:
	mov	w21, w0
.Ltmp2059:
	.loc	1 0 10
	b	.LBB16_387
.Ltmp2060:
.LBB16_386:
	.loc	172 31 15 is_stmt 1
	ldr	x8, [x0, #32]
	.loc	172 31 9 is_stmt 0
	mov	w1, #1
	blr	x8
.Ltmp2061:
	.loc	172 0 9
	mov	w21, wzr
.Ltmp2062:
.LBB16_387:
	.loc	1 410 24 is_stmt 1
	ldr	x0, [x19, #8]
.Ltmp2063:
	.loc	1 0 24 is_stmt 0
	ldr	x1, [sp, #24]
.Ltmp2064:
	.loc	170 55 15 is_stmt 1
	ldr	x8, [x0, #56]
	.loc	170 55 9 is_stmt 0
	blr	x8
.Ltmp2065:
	.loc	1 411 3 is_stmt 1
	adrp	x1, .L.str.82
	ldr	x0, [x19]
	add	x1, x1, :lo12:.L.str.82
	mov	w2, w21
	bl	_dev_info
.Ltmp2066:
	.loc	1 0 3 is_stmt 0
	b	.LBB16_351
.Ltmp2067:
.LBB16_388:
	.loc	172 36 15 is_stmt 1
	ldr	x8, [x0, #32]
	.loc	172 36 9 is_stmt 0
	mov	w1, wzr
	blr	x8
.Ltmp2068:
	.loc	172 0 9
	mov	w21, wzr
.Ltmp2069:
.LBB16_389:
	.loc	1 421 17 is_stmt 1
	ldr	w8, [x19, #672]
.Ltmp2070:
	.loc	1 421 7 is_stmt 0
	cbz	w8, .LBB16_391
.Ltmp2071:
	.loc	1 0 7
	ldr	x0, [sp, #8]
.Ltmp2072:
	.loc	1 422 31 is_stmt 1
	str	wzr, [x19, #672]
.Ltmp2073:
	.loc	177 68 2
	bl	__pm_relax
.Ltmp2074:
.LBB16_391:
	.loc	1 425 3
	adrp	x1, .L.str.83
	ldr	x0, [x19]
	add	x1, x1, :lo12:.L.str.83
	mov	w2, w21
	bl	_dev_info
.Ltmp2075:
	.loc	1 2849 18
	ldr	w8, [x19, #308]
	cbnz	w8, .LBB16_317
	b	.LBB16_210
.Ltmp2076:
.LBB16_392:
	.loc	1 2376 34
	ldr	w8, [x19, #408]
.Ltmp2077:
	.loc	1 2376 8 is_stmt 0
	cmp	w8, #1
	b.eq	.LBB16_395
.Ltmp2078:
.LBB16_393:
	.loc	1 0 8
	mrs	x8, SP_EL0
	ldr	x8, [x8, #1584]
	ldur	x9, [x29, #-8]
	cmp	x8, x9
	b.ne	.LBB16_401
.Ltmp2079:
	.loc	1 2856 1 is_stmt 1
	ldp	x20, x19, [sp, #192]
.Ltmp2080:
	mov	w0, wzr
	ldp	x22, x21, [sp, #176]
.Ltmp2081:
	ldp	x24, x23, [sp, #160]
	ldp	x26, x25, [sp, #144]
	ldp	x28, x27, [sp, #128]
	ldp	x29, x30, [sp, #112]
	ldr	x30, [x18, #-8]!
	add	sp, sp, #208
.Ltmp2082:
	ret
.Ltmp2083:
.LBB16_395:
	.loc	1 416 25
	ldr	x0, [x19, #8]
.Ltmp2084:
	.loc	1 415 30
	str	wzr, [x19, #408]
.Ltmp2085:
	.loc	170 60 8
	ldr	x8, [x0, #64]
	.loc	170 60 2 is_stmt 0
	blr	x8
.Ltmp2086:
	.loc	1 417 12 is_stmt 1
	ldr	x0, [x19, #16]
.Ltmp2087:
	.loc	1 417 7 is_stmt 0
	cbnz	x0, .LBB16_397
.Ltmp2088:
	.loc	1 420 33 is_stmt 1
	ldr	x0, [x19, #24]
	.loc	1 420 10 is_stmt 0
	bl	regulator_disable
.Ltmp2089:
	mov	w21, w0
.Ltmp2090:
	.loc	1 0 10
	b	.LBB16_398
.Ltmp2091:
.LBB16_397:
	.loc	172 36 15 is_stmt 1
	ldr	x8, [x0, #32]
	.loc	172 36 9 is_stmt 0
	mov	w1, wzr
	blr	x8
.Ltmp2092:
	.loc	172 0 9
	mov	w21, wzr
.Ltmp2093:
.LBB16_398:
	.loc	1 421 17 is_stmt 1
	ldr	w8, [x19, #672]
.Ltmp2094:
	.loc	1 421 7 is_stmt 0
	cbz	w8, .LBB16_400
.Ltmp2095:
	.loc	1 0 7
	ldr	x0, [sp, #8]
.Ltmp2096:
	.loc	1 422 31 is_stmt 1
	str	wzr, [x19, #672]
.Ltmp2097:
	.loc	177 68 2
	bl	__pm_relax
.Ltmp2098:
.LBB16_400:
	.loc	1 425 3
	adrp	x1, .L.str.83
	ldr	x0, [x19]
	add	x1, x1, :lo12:.L.str.83
	mov	w2, w21
	bl	_dev_info
.Ltmp2099:
	.loc	1 0 3 is_stmt 0
	b	.LBB16_393
.Ltmp2100:
.LBB16_401:
	bl	__stack_chk_fail
.Ltmp2101:
.Lfunc_end16:
	.size	ebc_thread, .Lfunc_end16-ebc_thread
	.cfi_endproc

	.p2align	2
	.type	get_overlay_image2,@function
get_overlay_image2:
.Lfunc_begin17:
	.loc	1 678 0 is_stmt 1
	.cfi_startproc
	sub	sp, sp, #128
	str	x30, [x18], #8
	.cfi_escape 0x16, 0x12, 0x02, 0x82, 0x78
	stp	x29, x30, [sp, #32]
	add	x29, sp, #32
	stp	x28, x27, [sp, #48]
	stp	x26, x25, [sp, #64]
	stp	x24, x23, [sp, #80]
	stp	x22, x21, [sp, #96]
	stp	x20, x19, [sp, #112]
	.cfi_def_cfa w29, 96
	.cfi_offset w19, -8
	.cfi_offset w20, -16
	.cfi_offset w21, -24
	.cfi_offset w22, -32
	.cfi_offset w23, -40
	.cfi_offset w24, -48
	.cfi_offset w25, -56
	.cfi_offset w26, -64
	.cfi_offset w27, -72
	.cfi_offset w28, -80
	.cfi_offset w30, -88
	.cfi_offset w29, -96
.Ltmp2102:
	.loc	1 679 29 prologue_end
	adrp	x8, global_ebc
	mov	x19, x5
.Ltmp2103:
	.loc	1 0 29 is_stmt 0
	mov	x22, x4
.Ltmp2104:
	mov	x21, x3
.Ltmp2105:
	mov	x23, x2
.Ltmp2106:
	mov	x24, x1
.Ltmp2107:
	.loc	1 679 29
	ldr	x8, [x8, :lo12:global_ebc]
.Ltmp2108:
	.loc	1 688 6 is_stmt 1
	cmp	w6, #3
	stur	x0, [x29, #-8]
.Ltmp2109:
	.loc	1 685 17
	ldp	w25, w10, [x8, #124]
.Ltmp2110:
	.loc	1 685 27 is_stmt 0
	lsr	w20, w25, #3
.Ltmp2111:
	.loc	1 688 6 is_stmt 1
	b.eq	.LBB17_3
.Ltmp2112:
	.loc	1 0 6 is_stmt 0
	add	x8, x19, #60
.Ltmp2113:
	.loc	1 688 6
	cmp	w6, #2
	str	x8, [sp, #8]
.Ltmp2114:
	b.ne	.LBB17_4
.Ltmp2115:
	.loc	1 690 19 is_stmt 1
	cmp	w10, #0
	mov	w27, wzr
	cinc	w8, w10, lt
	asr	w10, w8, #1
.Ltmp2116:
	.loc	1 0 19 is_stmt 0
	b	.LBB17_5
.Ltmp2117:
.LBB17_3:
	.loc	1 692 14 is_stmt 1
	cmp	w10, #0
	cinc	w8, w10, lt
	asr	w27, w8, #1
.Ltmp2118:
	.loc	1 693 19
	mul	w8, w27, w20
	.loc	1 695 20
	mul	w9, w27, w25
	.loc	1 693 14
	sbfiz	x8, x8, #3, #32
	.loc	1 695 15
	add	x21, x21, x9
.Ltmp2119:
	.loc	1 693 14
	add	x24, x24, x8
.Ltmp2120:
	.loc	1 694 14
	add	x23, x23, x8
.Ltmp2121:
	.loc	1 696 12
	add	x22, x22, x9
.Ltmp2122:
	.loc	1 697 35
	add	x8, x19, #64
.Ltmp2123:
	.loc	1 0 35 is_stmt 0
	str	x8, [sp, #8]
.Ltmp2124:
	b	.LBB17_5
.Ltmp2125:
.LBB17_4:
	mov	w27, wzr
.Ltmp2126:
.LBB17_5:
	.loc	1 702 31 is_stmt 1
	lsr	w26, w25, #2
.Ltmp2127:
	.loc	1 703 60
	subs	w8, w10, w27
	ldur	x9, [x29, #-8]
	.loc	1 703 2 is_stmt 0
	mov	w1, wzr
.Ltmp2128:
	.loc	1 703 23
	mul	w28, w27, w26
	stur	w10, [x29, #-12]
	.loc	1 703 50
	mul	w8, w8, w26
	.loc	1 703 18
	add	x0, x9, w28, sxtw
	.loc	1 703 40
	sxtw	x2, w8
	.loc	1 703 2
	bl	memset
.Ltmp2129:
	.loc	1 0 2
	ldur	w11, [x29, #-12]
	mov	w2, wzr
	.loc	1 703 60
	cmp	w11, w27
.Ltmp2130:
	.loc	1 705 2 is_stmt 1
	b.le	.LBB17_59
.Ltmp2131:
	cmp	w20, #1
	mov	w2, wzr
	csinc	w9, w20, wzr, hi
	lsl	w8, w26, #1
	lsl	x9, x9, #3
	mov	w10, #56
	b	.LBB17_10
.Ltmp2132:
.LBB17_7:
	.loc	1 705 23 is_stmt 0
	add	x12, x24, x11
	add	x13, x23, x11
	add	x24, x12, x17
	add	x12, x22, x11
	add	x11, x21, x11
	add	x23, x13, x17
	add	x22, x12, x17
	add	x21, x11, x17
.Ltmp2133:
.LBB17_8:
	.loc	1 0 23
	ldur	w11, [x29, #-12]
.Ltmp2134:
.LBB17_9:
	.loc	1 705 23
	add	w27, w27, #2
.Ltmp2135:
	.loc	1 705 2
	add	w28, w28, w8
	cmp	w27, w11
	b.ge	.LBB17_59
.Ltmp2136:
.LBB17_10:
	.loc	1 707 3 is_stmt 1
	cmp	w25, #8
	b.lo	.LBB17_9
.Ltmp2137:
	.loc	1 0 3 is_stmt 0
	ldur	x12, [x29, #-8]
	mov	x11, xzr
	add	x12, x12, w28, sxtw
	mov	x13, x12
	b	.LBB17_15
.Ltmp2138:
.LBB17_12:
	.loc	1 726 18 is_stmt 1
	str	x14, [x23, x11]
.Ltmp2139:
.LBB17_13:
	.loc	1 0 18 is_stmt 0
	mov	w2, #1
	.loc	1 727 29 is_stmt 1
	str	w16, [x13]
.Ltmp2140:
.LBB17_14:
	.loc	1 707 17
	add	x13, x13, #4
	add	x11, x11, #8
.Ltmp2141:
	.loc	1 707 3 is_stmt 0
	cmp	x9, x11
	b.eq	.LBB17_34
.Ltmp2142:
.LBB17_15:
	.loc	1 708 19 is_stmt 1
	ldr	x15, [x24, x11]
.Ltmp2143:
	.loc	1 709 19
	ldr	x14, [x23, x11]
.Ltmp2144:
	.loc	1 711 8
	cmp	x15, x14
	b.eq	.LBB17_14
.Ltmp2145:
	.loc	1 714 28
	eor	x0, x14, x15
.Ltmp2146:
	.loc	1 717 5
	tst	x0, #0xff
.Ltmp2147:
	.loc	1 717 5 is_stmt 0
	b.eq	.LBB17_18
.Ltmp2148:
	.loc	1 717 5
	ldrb	w16, [x22, x11]
.Ltmp2149:
	lsl	w2, w14, #2
	ldrb	w1, [x21, x11]
.Ltmp2150:
	and	x2, x2, #0x3e0
	bfxil	x2, x15, #3, #5
	mov	x3, x14
	bfxil	x3, x15, #0, #8
	add	x17, x19, x16, lsl #3
	cmp	w16, #0
	cinc	x16, x10, ne
.Ltmp2151:
	add	w4, w1, #1
.Ltmp2152:
	ldr	x17, [x17, #128]
.Ltmp2153:
	.loc	1 717 5
	ldrb	w16, [x19, x16]
.Ltmp2154:
	.loc	1 717 5
	add	x17, x17, x1, lsl #10
.Ltmp2155:
	.loc	1 717 5
	cmp	w16, w4, uxtb
.Ltmp2156:
	.loc	1 717 5
	ldrb	w16, [x17, x2]
.Ltmp2157:
	.loc	1 717 5
	cset	w17, eq
.Ltmp2158:
	.loc	1 717 5
	csel	x14, x3, x14, eq
.Ltmp2159:
	csinc	w1, wzr, w1, eq
.Ltmp2160:
	strb	w1, [x21, x11]
	b	.LBB17_19
.Ltmp2161:
.LBB17_18:
	.loc	1 0 5
	mov	w16, wzr
	mov	w17, wzr
.Ltmp2162:
.LBB17_19:
	.loc	1 718 5 is_stmt 1
	add	x1, x21, x11
	tst	x0, #0xff00
.Ltmp2163:
	.loc	1 718 5 is_stmt 0
	b.eq	.LBB17_21
.Ltmp2164:
	.loc	1 718 5
	add	x2, x22, x11
	ldrb	w4, [x1, #1]
.Ltmp2165:
	lsr	x5, x14, #6
	lsr	x6, x15, #8
	and	x5, x5, #0x3e0
	ldrb	w2, [x2, #1]
.Ltmp2166:
	bfxil	x5, x15, #11, #5
	add	x3, x19, x2, lsl #3
	cmp	w2, #0
	cinc	x2, x10, ne
.Ltmp2167:
	ldr	x3, [x3, #128]
.Ltmp2168:
	.loc	1 718 5
	ldrb	w2, [x19, x2]
.Ltmp2169:
	.loc	1 718 5
	add	x3, x3, x4, lsl #10
.Ltmp2170:
	ldrb	w3, [x3, x5]
.Ltmp2171:
	add	w5, w4, #1
.Ltmp2172:
	.loc	1 718 5
	cmp	w2, w5, uxtb
.Ltmp2173:
	.loc	1 718 5
	mov	x2, x14
.Ltmp2174:
	bfi	x2, x6, #8, #8
.Ltmp2175:
	.loc	1 718 5
	cset	w5, eq
.Ltmp2176:
	.loc	1 718 5
	csinc	w4, wzr, w4, eq
	orr	w17, w5, w17
	orr	w16, w16, w3, lsl #4
.Ltmp2177:
	csel	x14, x2, x14, eq
.Ltmp2178:
	strb	w4, [x1, #1]
.Ltmp2179:
.LBB17_21:
	.loc	1 719 5 is_stmt 1
	tst	x0, #0xff0000
.Ltmp2180:
	.loc	1 719 5 is_stmt 0
	b.eq	.LBB17_23
.Ltmp2181:
	.loc	1 719 5
	add	x2, x22, x11
	ldrb	w4, [x1, #2]
.Ltmp2182:
	lsr	x5, x14, #14
	lsr	x6, x15, #16
	and	x5, x5, #0x3e0
	ldrb	w2, [x2, #2]
.Ltmp2183:
	bfxil	x5, x15, #19, #5
	add	x3, x19, x2, lsl #3
	cmp	w2, #0
	cinc	x2, x10, ne
.Ltmp2184:
	ldr	x3, [x3, #128]
.Ltmp2185:
	.loc	1 719 5
	ldrb	w2, [x19, x2]
.Ltmp2186:
	.loc	1 719 5
	add	x3, x3, x4, lsl #10
.Ltmp2187:
	ldrb	w3, [x3, x5]
.Ltmp2188:
	add	w5, w4, #1
.Ltmp2189:
	.loc	1 719 5
	cmp	w2, w5, uxtb
.Ltmp2190:
	.loc	1 719 5
	mov	x2, x14
.Ltmp2191:
	bfi	x2, x6, #16, #8
.Ltmp2192:
	.loc	1 719 5
	cset	w5, eq
.Ltmp2193:
	.loc	1 719 5
	csinc	w4, wzr, w4, eq
	orr	w17, w5, w17
	orr	w16, w16, w3, lsl #8
.Ltmp2194:
	csel	x14, x2, x14, eq
.Ltmp2195:
	strb	w4, [x1, #2]
.Ltmp2196:
.LBB17_23:
	.loc	1 720 5 is_stmt 1
	add	x1, x21, x11
	tst	x0, #0xff000000
.Ltmp2197:
	.loc	1 720 5 is_stmt 0
	b.eq	.LBB17_25
.Ltmp2198:
	.loc	1 720 5
	add	x2, x22, x11
	ldrb	w4, [x1, #3]
.Ltmp2199:
	lsr	x5, x14, #22
	lsr	x6, x15, #24
	and	x5, x5, #0x3e0
	ldrb	w2, [x2, #3]
.Ltmp2200:
	bfxil	x5, x15, #27, #5
	add	x3, x19, x2, lsl #3
	cmp	w2, #0
	cinc	x2, x10, ne
.Ltmp2201:
	ldr	x3, [x3, #128]
.Ltmp2202:
	.loc	1 720 5
	ldrb	w2, [x19, x2]
.Ltmp2203:
	.loc	1 720 5
	add	x3, x3, x4, lsl #10
.Ltmp2204:
	ldrb	w3, [x3, x5]
.Ltmp2205:
	add	w5, w4, #1
.Ltmp2206:
	.loc	1 720 5
	cmp	w2, w5, uxtb
.Ltmp2207:
	.loc	1 720 5
	mov	x2, x14
.Ltmp2208:
	bfi	x2, x6, #24, #8
.Ltmp2209:
	.loc	1 720 5
	cset	w5, eq
.Ltmp2210:
	.loc	1 720 5
	csinc	w4, wzr, w4, eq
	orr	w17, w5, w17
	orr	w16, w16, w3, lsl #12
.Ltmp2211:
	csel	x14, x2, x14, eq
.Ltmp2212:
	strb	w4, [x1, #3]
.Ltmp2213:
.LBB17_25:
	.loc	1 721 5 is_stmt 1
	tst	x0, #0xff00000000
.Ltmp2214:
	.loc	1 721 5 is_stmt 0
	b.eq	.LBB17_27
.Ltmp2215:
	.loc	1 721 5
	add	x2, x22, x11
	ldrb	w4, [x1, #4]
.Ltmp2216:
	lsr	x5, x14, #30
	lsr	x6, x15, #32
	and	x5, x5, #0x3e0
	ldrb	w2, [x2, #4]
.Ltmp2217:
	bfxil	x5, x15, #35, #5
	add	x3, x19, x2, lsl #3
	cmp	w2, #0
	cinc	x2, x10, ne
.Ltmp2218:
	ldr	x3, [x3, #128]
.Ltmp2219:
	.loc	1 721 5
	ldrb	w2, [x19, x2]
.Ltmp2220:
	.loc	1 721 5
	add	x3, x3, x4, lsl #10
.Ltmp2221:
	ldrb	w3, [x3, x5]
.Ltmp2222:
	add	w5, w4, #1
.Ltmp2223:
	.loc	1 721 5
	cmp	w2, w5, uxtb
.Ltmp2224:
	.loc	1 721 5
	mov	x2, x14
.Ltmp2225:
	bfi	x2, x6, #32, #8
.Ltmp2226:
	.loc	1 721 5
	cset	w5, eq
.Ltmp2227:
	.loc	1 721 5
	csinc	w4, wzr, w4, eq
	orr	w17, w5, w17
	orr	w16, w16, w3, lsl #16
.Ltmp2228:
	csel	x14, x2, x14, eq
.Ltmp2229:
	strb	w4, [x1, #4]
.Ltmp2230:
.LBB17_27:
	.loc	1 722 5 is_stmt 1
	add	x1, x21, x11
	tst	x0, #0xff0000000000
.Ltmp2231:
	.loc	1 722 5 is_stmt 0
	b.eq	.LBB17_29
.Ltmp2232:
	.loc	1 722 5
	add	x2, x22, x11
	ldrb	w4, [x1, #5]
.Ltmp2233:
	lsr	x5, x14, #38
	lsr	x6, x15, #40
	and	x5, x5, #0x3e0
	ldrb	w2, [x2, #5]
.Ltmp2234:
	bfxil	x5, x15, #43, #5
	add	x3, x19, x2, lsl #3
	cmp	w2, #0
	cinc	x2, x10, ne
.Ltmp2235:
	ldr	x3, [x3, #128]
.Ltmp2236:
	.loc	1 722 5
	ldrb	w2, [x19, x2]
.Ltmp2237:
	.loc	1 722 5
	add	x3, x3, x4, lsl #10
.Ltmp2238:
	ldrb	w3, [x3, x5]
.Ltmp2239:
	add	w5, w4, #1
.Ltmp2240:
	.loc	1 722 5
	cmp	w2, w5, uxtb
.Ltmp2241:
	.loc	1 722 5
	mov	x2, x14
.Ltmp2242:
	bfi	x2, x6, #40, #8
.Ltmp2243:
	.loc	1 722 5
	cset	w5, eq
.Ltmp2244:
	.loc	1 722 5
	csinc	w4, wzr, w4, eq
	orr	w17, w5, w17
	orr	w16, w16, w3, lsl #20
.Ltmp2245:
	csel	x14, x2, x14, eq
.Ltmp2246:
	strb	w4, [x1, #5]
.Ltmp2247:
.LBB17_29:
	.loc	1 723 5 is_stmt 1
	tst	x0, #0xff000000000000
.Ltmp2248:
	.loc	1 723 5 is_stmt 0
	b.eq	.LBB17_31
.Ltmp2249:
	.loc	1 723 5
	add	x2, x22, x11
	ldrb	w4, [x1, #6]
.Ltmp2250:
	lsr	x5, x14, #46
	lsr	x6, x15, #48
	and	x5, x5, #0x3e0
	ldrb	w2, [x2, #6]
.Ltmp2251:
	bfxil	x5, x15, #51, #5
	add	x3, x19, x2, lsl #3
	cmp	w2, #0
	cinc	x2, x10, ne
.Ltmp2252:
	ldr	x3, [x3, #128]
.Ltmp2253:
	.loc	1 723 5
	ldrb	w2, [x19, x2]
.Ltmp2254:
	.loc	1 723 5
	add	x3, x3, x4, lsl #10
.Ltmp2255:
	ldrb	w3, [x3, x5]
.Ltmp2256:
	add	w5, w4, #1
.Ltmp2257:
	.loc	1 723 5
	cmp	w2, w5, uxtb
.Ltmp2258:
	.loc	1 723 5
	mov	x2, x14
.Ltmp2259:
	bfi	x2, x6, #48, #8
.Ltmp2260:
	.loc	1 723 5
	cset	w5, eq
.Ltmp2261:
	.loc	1 723 5
	csinc	w4, wzr, w4, eq
	orr	w17, w5, w17
	orr	w16, w16, w3, lsl #24
.Ltmp2262:
	csel	x14, x2, x14, eq
.Ltmp2263:
	strb	w4, [x1, #6]
.Ltmp2264:
.LBB17_31:
	.loc	1 724 5 is_stmt 1
	lsr	x0, x0, #56
.Ltmp2265:
	cbnz	x0, .LBB17_33
.Ltmp2266:
	.loc	1 725 9
	cbnz	w17, .LBB17_12
	b	.LBB17_13
.Ltmp2267:
.LBB17_33:
	.loc	1 724 5
	add	x0, x22, x11
.Ltmp2268:
	.loc	1 0 0 is_stmt 0
	add	x1, x21, x11
.Ltmp2269:
	.loc	1 724 5
	lsr	x4, x14, #54
	and	x4, x4, #0x3e0
	ldrb	w0, [x0, #7]
.Ltmp2270:
	bfxil	x4, x15, #59, #5
	bfxil	x15, x14, #0, #56
.Ltmp2271:
	add	x2, x19, x0, lsl #3
	cmp	w0, #0
	ldrb	w0, [x1, #7]
.Ltmp2272:
	cinc	x3, x10, ne
	ldr	x2, [x2, #128]
.Ltmp2273:
	.loc	1 724 5
	ldrb	w3, [x19, x3]
.Ltmp2274:
	.loc	1 724 5
	add	x2, x2, x0, lsl #10
.Ltmp2275:
	ldrb	w2, [x2, x4]
.Ltmp2276:
	add	w4, w0, #1
.Ltmp2277:
	.loc	1 724 5
	cmp	w3, w4, uxtb
	cset	w3, eq
.Ltmp2278:
	.loc	1 724 5
	csinc	w0, wzr, w0, eq
	orr	w17, w3, w17
	csel	x14, x15, x14, eq
.Ltmp2279:
	orr	w16, w16, w2, lsl #28
.Ltmp2280:
	strb	w0, [x1, #7]
.Ltmp2281:
	.loc	1 725 9 is_stmt 1
	tbnz	w17, #0, .LBB17_12
	b	.LBB17_13
.Ltmp2282:
.LBB17_34:
	.loc	1 737 3
	add	x13, x24, x11
	add	x14, x23, x11
	add	x15, x22, x11
	add	x16, x21, x11
	cmp	w25, #8
	b.hs	.LBB17_36
.Ltmp2283:
	.loc	1 0 3 is_stmt 0
	mov	x22, x15
	mov	x21, x16
	mov	x23, x14
	mov	x24, x13
	b	.LBB17_8
.Ltmp2284:
.LBB17_36:
	mov	x17, xzr
	b	.LBB17_40
.Ltmp2285:
.LBB17_37:
	.loc	1 756 18 is_stmt 1
	str	x0, [x14, x17]
.Ltmp2286:
.LBB17_38:
	.loc	1 757 29
	ldr	w0, [x12]
.Ltmp2287:
	orr	w0, w0, w2
	mov	w2, #1
.Ltmp2288:
	str	w0, [x12]
.Ltmp2289:
.LBB17_39:
	.loc	1 737 17
	add	x12, x12, #4
	add	x17, x17, #8
.Ltmp2290:
	.loc	1 737 3 is_stmt 0
	cmp	x9, x17
	b.eq	.LBB17_7
.Ltmp2291:
.LBB17_40:
	.loc	1 738 19 is_stmt 1
	ldr	x1, [x13, x17]
.Ltmp2292:
	.loc	1 739 19
	ldr	x0, [x14, x17]
.Ltmp2293:
	.loc	1 741 8
	cmp	x1, x0
	b.eq	.LBB17_39
.Ltmp2294:
	.loc	1 744 28
	eor	x4, x0, x1
.Ltmp2295:
	.loc	1 747 5
	tst	x4, #0xff
.Ltmp2296:
	.loc	1 747 5 is_stmt 0
	b.eq	.LBB17_43
.Ltmp2297:
	.loc	1 747 5
	ldrb	w2, [x15, x17]
.Ltmp2298:
	lsl	w6, w0, #2
	ldrb	w5, [x16, x17]
.Ltmp2299:
	mov	x7, x0
	bfxil	x7, x1, #0, #8
	add	x3, x19, x2, lsl #3
	cmp	w2, #0
	ldr	x2, [x3, #128]
.Ltmp2300:
	and	x3, x6, #0x3e0
	cinc	x6, x10, ne
	bfxil	x3, x1, #3, #5
	add	x2, x2, x5, lsl #10
.Ltmp2301:
	.loc	1 747 5
	ldrb	w6, [x19, x6]
.Ltmp2302:
	.loc	1 747 5
	ldrb	w2, [x2, x3]
.Ltmp2303:
	add	w3, w5, #1
.Ltmp2304:
	.loc	1 747 5
	cmp	w6, w3, uxtb
	cset	w3, eq
.Ltmp2305:
	.loc	1 747 5
	lsl	w2, w2, #2
.Ltmp2306:
	csel	x0, x7, x0, eq
.Ltmp2307:
	csinc	w5, wzr, w5, eq
.Ltmp2308:
	strb	w5, [x16, x17]
	b	.LBB17_44
.Ltmp2309:
.LBB17_43:
	.loc	1 0 5
	mov	w3, wzr
	mov	w2, wzr
.Ltmp2310:
.LBB17_44:
	.loc	1 748 5 is_stmt 1
	add	x5, x16, x17
	tst	x4, #0xff00
.Ltmp2311:
	.loc	1 748 5 is_stmt 0
	b.eq	.LBB17_46
.Ltmp2312:
	.loc	1 748 5
	add	x6, x15, x17
	ldrb	w20, [x5, #1]
.Ltmp2313:
	lsr	x26, x0, #6
	lsr	x30, x1, #8
	and	x26, x26, #0x3e0
	ldrb	w6, [x6, #1]
.Ltmp2314:
	bfxil	x26, x1, #11, #5
	add	x7, x19, x6, lsl #3
	cmp	w6, #0
	cinc	x6, x10, ne
.Ltmp2315:
	ldr	x7, [x7, #128]
.Ltmp2316:
	.loc	1 748 5
	ldrb	w6, [x19, x6]
.Ltmp2317:
	.loc	1 748 5
	add	x7, x7, x20, lsl #10
.Ltmp2318:
	ldrb	w7, [x7, x26]
.Ltmp2319:
	add	w26, w20, #1
.Ltmp2320:
	.loc	1 748 5
	cmp	w6, w26, uxtb
.Ltmp2321:
	.loc	1 748 5
	mov	x6, x0
.Ltmp2322:
	bfi	x6, x30, #8, #8
.Ltmp2323:
	.loc	1 748 5
	cset	w26, eq
.Ltmp2324:
	.loc	1 748 5
	csinc	w20, wzr, w20, eq
.Ltmp2325:
	csel	x0, x6, x0, eq
	orr	w2, w2, w7, lsl #6
.Ltmp2326:
	orr	w3, w26, w3
	strb	w20, [x5, #1]
.Ltmp2327:
.LBB17_46:
	.loc	1 749 5 is_stmt 1
	tst	x4, #0xff0000
.Ltmp2328:
	.loc	1 749 5 is_stmt 0
	b.eq	.LBB17_48
.Ltmp2329:
	.loc	1 749 5
	add	x6, x15, x17
	ldrb	w20, [x5, #2]
.Ltmp2330:
	lsr	x26, x0, #14
	lsr	x30, x1, #16
	and	x26, x26, #0x3e0
	ldrb	w6, [x6, #2]
.Ltmp2331:
	bfxil	x26, x1, #19, #5
	add	x7, x19, x6, lsl #3
	cmp	w6, #0
	cinc	x6, x10, ne
.Ltmp2332:
	ldr	x7, [x7, #128]
.Ltmp2333:
	.loc	1 749 5
	ldrb	w6, [x19, x6]
.Ltmp2334:
	.loc	1 749 5
	add	x7, x7, x20, lsl #10
.Ltmp2335:
	ldrb	w7, [x7, x26]
.Ltmp2336:
	add	w26, w20, #1
.Ltmp2337:
	.loc	1 749 5
	cmp	w6, w26, uxtb
.Ltmp2338:
	.loc	1 749 5
	mov	x6, x0
.Ltmp2339:
	bfi	x6, x30, #16, #8
.Ltmp2340:
	.loc	1 749 5
	cset	w26, eq
.Ltmp2341:
	.loc	1 749 5
	csinc	w20, wzr, w20, eq
.Ltmp2342:
	csel	x0, x6, x0, eq
	orr	w2, w2, w7, lsl #10
.Ltmp2343:
	orr	w3, w26, w3
	strb	w20, [x5, #2]
.Ltmp2344:
.LBB17_48:
	.loc	1 750 5 is_stmt 1
	add	x5, x16, x17
	tst	x4, #0xff000000
.Ltmp2345:
	.loc	1 750 5 is_stmt 0
	b.eq	.LBB17_50
.Ltmp2346:
	.loc	1 750 5
	add	x6, x15, x17
	ldrb	w20, [x5, #3]
.Ltmp2347:
	lsr	x26, x0, #22
	lsr	x30, x1, #24
	and	x26, x26, #0x3e0
	ldrb	w6, [x6, #3]
.Ltmp2348:
	bfxil	x26, x1, #27, #5
	add	x7, x19, x6, lsl #3
	cmp	w6, #0
	cinc	x6, x10, ne
.Ltmp2349:
	ldr	x7, [x7, #128]
.Ltmp2350:
	.loc	1 750 5
	ldrb	w6, [x19, x6]
.Ltmp2351:
	.loc	1 750 5
	add	x7, x7, x20, lsl #10
.Ltmp2352:
	ldrb	w7, [x7, x26]
.Ltmp2353:
	add	w26, w20, #1
.Ltmp2354:
	.loc	1 750 5
	cmp	w6, w26, uxtb
.Ltmp2355:
	.loc	1 750 5
	mov	x6, x0
.Ltmp2356:
	bfi	x6, x30, #24, #8
.Ltmp2357:
	.loc	1 750 5
	cset	w26, eq
.Ltmp2358:
	.loc	1 750 5
	csinc	w20, wzr, w20, eq
.Ltmp2359:
	csel	x0, x6, x0, eq
	orr	w2, w2, w7, lsl #14
.Ltmp2360:
	orr	w3, w26, w3
	strb	w20, [x5, #3]
.Ltmp2361:
.LBB17_50:
	.loc	1 751 5 is_stmt 1
	tst	x4, #0xff00000000
.Ltmp2362:
	.loc	1 751 5 is_stmt 0
	b.eq	.LBB17_52
.Ltmp2363:
	.loc	1 751 5
	add	x6, x15, x17
	ldrb	w20, [x5, #4]
.Ltmp2364:
	lsr	x26, x0, #30
	lsr	x30, x1, #32
	and	x26, x26, #0x3e0
	ldrb	w6, [x6, #4]
.Ltmp2365:
	bfxil	x26, x1, #35, #5
	add	x7, x19, x6, lsl #3
	cmp	w6, #0
	cinc	x6, x10, ne
.Ltmp2366:
	ldr	x7, [x7, #128]
.Ltmp2367:
	.loc	1 751 5
	ldrb	w6, [x19, x6]
.Ltmp2368:
	.loc	1 751 5
	add	x7, x7, x20, lsl #10
.Ltmp2369:
	ldrb	w7, [x7, x26]
.Ltmp2370:
	add	w26, w20, #1
.Ltmp2371:
	.loc	1 751 5
	cmp	w6, w26, uxtb
.Ltmp2372:
	.loc	1 751 5
	mov	x6, x0
.Ltmp2373:
	bfi	x6, x30, #32, #8
.Ltmp2374:
	.loc	1 751 5
	cset	w26, eq
.Ltmp2375:
	.loc	1 751 5
	csinc	w20, wzr, w20, eq
.Ltmp2376:
	csel	x0, x6, x0, eq
	orr	w2, w2, w7, lsl #18
.Ltmp2377:
	orr	w3, w26, w3
	strb	w20, [x5, #4]
.Ltmp2378:
.LBB17_52:
	.loc	1 752 5 is_stmt 1
	add	x5, x16, x17
	tst	x4, #0xff0000000000
.Ltmp2379:
	.loc	1 752 5 is_stmt 0
	b.eq	.LBB17_54
.Ltmp2380:
	.loc	1 752 5
	add	x6, x15, x17
	ldrb	w20, [x5, #5]
.Ltmp2381:
	lsr	x26, x0, #38
	lsr	x30, x1, #40
	and	x26, x26, #0x3e0
	ldrb	w6, [x6, #5]
.Ltmp2382:
	bfxil	x26, x1, #43, #5
	add	x7, x19, x6, lsl #3
	cmp	w6, #0
	cinc	x6, x10, ne
.Ltmp2383:
	ldr	x7, [x7, #128]
.Ltmp2384:
	.loc	1 752 5
	ldrb	w6, [x19, x6]
.Ltmp2385:
	.loc	1 752 5
	add	x7, x7, x20, lsl #10
.Ltmp2386:
	ldrb	w7, [x7, x26]
.Ltmp2387:
	add	w26, w20, #1
.Ltmp2388:
	.loc	1 752 5
	cmp	w6, w26, uxtb
.Ltmp2389:
	.loc	1 752 5
	mov	x6, x0
.Ltmp2390:
	bfi	x6, x30, #40, #8
.Ltmp2391:
	.loc	1 752 5
	cset	w26, eq
.Ltmp2392:
	.loc	1 752 5
	csinc	w20, wzr, w20, eq
.Ltmp2393:
	csel	x0, x6, x0, eq
	orr	w2, w2, w7, lsl #22
.Ltmp2394:
	orr	w3, w26, w3
	strb	w20, [x5, #5]
.Ltmp2395:
.LBB17_54:
	.loc	1 753 5 is_stmt 1
	tst	x4, #0xff000000000000
.Ltmp2396:
	.loc	1 753 5 is_stmt 0
	b.eq	.LBB17_56
.Ltmp2397:
	.loc	1 753 5
	add	x6, x15, x17
	ldrb	w20, [x5, #6]
.Ltmp2398:
	lsr	x26, x0, #46
	lsr	x30, x1, #48
	and	x26, x26, #0x3e0
	ldrb	w6, [x6, #6]
.Ltmp2399:
	bfxil	x26, x1, #51, #5
	add	x7, x19, x6, lsl #3
	cmp	w6, #0
	cinc	x6, x10, ne
.Ltmp2400:
	ldr	x7, [x7, #128]
.Ltmp2401:
	.loc	1 753 5
	ldrb	w6, [x19, x6]
.Ltmp2402:
	.loc	1 753 5
	add	x7, x7, x20, lsl #10
.Ltmp2403:
	ldrb	w7, [x7, x26]
.Ltmp2404:
	add	w26, w20, #1
.Ltmp2405:
	.loc	1 753 5
	cmp	w6, w26, uxtb
.Ltmp2406:
	.loc	1 753 5
	mov	x6, x0
.Ltmp2407:
	bfi	x6, x30, #48, #8
.Ltmp2408:
	.loc	1 753 5
	cset	w26, eq
.Ltmp2409:
	.loc	1 753 5
	csinc	w20, wzr, w20, eq
.Ltmp2410:
	csel	x0, x6, x0, eq
	orr	w2, w2, w7, lsl #26
.Ltmp2411:
	orr	w3, w26, w3
	strb	w20, [x5, #6]
.Ltmp2412:
.LBB17_56:
	.loc	1 754 5 is_stmt 1
	lsr	x4, x4, #56
.Ltmp2413:
	cbnz	x4, .LBB17_58
.Ltmp2414:
	.loc	1 755 9
	cbnz	w3, .LBB17_37
	b	.LBB17_38
.Ltmp2415:
.LBB17_58:
	.loc	1 754 5
	add	x4, x15, x17
.Ltmp2416:
	.loc	1 0 0 is_stmt 0
	add	x5, x16, x17
.Ltmp2417:
	.loc	1 754 5
	lsr	x20, x0, #54
	and	x20, x20, #0x3e0
	ldrb	w4, [x4, #7]
.Ltmp2418:
	bfxil	x20, x1, #59, #5
	bfxil	x1, x0, #0, #56
.Ltmp2419:
	add	x6, x19, x4, lsl #3
	cmp	w4, #0
	ldrb	w4, [x5, #7]
.Ltmp2420:
	cinc	x7, x10, ne
	ldr	x6, [x6, #128]
.Ltmp2421:
	.loc	1 754 5
	ldrb	w7, [x19, x7]
.Ltmp2422:
	.loc	1 754 5
	add	x6, x6, x4, lsl #10
.Ltmp2423:
	ldrb	w6, [x6, x20]
.Ltmp2424:
	add	w20, w4, #1
.Ltmp2425:
	.loc	1 754 5
	cmp	w7, w20, uxtb
	cset	w7, eq
.Ltmp2426:
	.loc	1 754 5
	csinc	w4, wzr, w4, eq
.Ltmp2427:
	orr	w3, w7, w3
	csel	x0, x1, x0, eq
.Ltmp2428:
	orr	w2, w2, w6, lsl #30
.Ltmp2429:
	strb	w4, [x5, #7]
.Ltmp2430:
	.loc	1 755 9 is_stmt 1
	tbnz	w3, #0, .LBB17_37
	b	.LBB17_38
.Ltmp2431:
.LBB17_59:
	.loc	1 0 9 is_stmt 0
	ldr	x8, [sp, #8]
	.loc	1 768 1 is_stmt 1
	ldp	x20, x19, [sp, #112]
.Ltmp2432:
	ldp	x22, x21, [sp, #96]
.Ltmp2433:
	.loc	1 767 21
	str	w2, [x8]
	.loc	1 768 1
	ldp	x24, x23, [sp, #80]
.Ltmp2434:
	ldp	x26, x25, [sp, #64]
	ldp	x28, x27, [sp, #48]
.Ltmp2435:
	ldp	x29, x30, [sp, #32]
	ldr	x30, [x18, #-8]!
	add	sp, sp, #128
.Ltmp2436:
	ret
.Ltmp2437:
.Lfunc_end17:
	.size	get_overlay_image2, .Lfunc_end17-get_overlay_image2
	.cfi_endproc

	.p2align	2
	.type	get_overlay_image,@function
get_overlay_image:
.Lfunc_begin18:
	.loc	1 606 0
	.cfi_startproc
	sub	sp, sp, #112
	str	x30, [x18], #8
	.cfi_escape 0x16, 0x12, 0x02, 0x82, 0x78
	stp	x29, x30, [sp, #16]
	add	x29, sp, #16
	stp	x28, x27, [sp, #32]
	stp	x26, x25, [sp, #48]
	stp	x24, x23, [sp, #64]
	stp	x22, x21, [sp, #80]
	stp	x20, x19, [sp, #96]
	.cfi_def_cfa w29, 96
	.cfi_offset w19, -8
	.cfi_offset w20, -16
	.cfi_offset w21, -24
	.cfi_offset w22, -32
	.cfi_offset w23, -40
	.cfi_offset w24, -48
	.cfi_offset w25, -56
	.cfi_offset w26, -64
	.cfi_offset w27, -72
	.cfi_offset w28, -80
	.cfi_offset w30, -88
	.cfi_offset w29, -96
.Ltmp2438:
	.loc	1 607 29 prologue_end
	adrp	x8, global_ebc
	mov	x19, x5
.Ltmp2439:
	.loc	1 0 29 is_stmt 0
	mov	x20, x4
.Ltmp2440:
	mov	x21, x3
.Ltmp2441:
	mov	x22, x2
.Ltmp2442:
	mov	x23, x1
.Ltmp2443:
	.loc	1 607 29
	ldr	x27, [x8, :lo12:global_ebc]
.Ltmp2444:
	.loc	1 0 29
	mov	x24, x0
.Ltmp2445:
	.loc	1 616 6 is_stmt 1
	cmp	w6, #3
	.loc	1 613 17
	ldp	w11, w8, [x27, #124]
.Ltmp2446:
	.loc	1 613 27 is_stmt 0
	lsr	w12, w11, #3
.Ltmp2447:
	.loc	1 616 6 is_stmt 1
	b.eq	.LBB18_3
.Ltmp2448:
	.loc	1 0 6 is_stmt 0
	add	x9, x19, #60
.Ltmp2449:
	.loc	1 616 6
	cmp	w6, #2
	str	x9, [sp, #8]
.Ltmp2450:
	b.ne	.LBB18_4
.Ltmp2451:
	.loc	1 618 19 is_stmt 1
	cmp	w8, #0
	mov	w26, wzr
	cinc	w9, w8, lt
	asr	w28, w9, #1
.Ltmp2452:
	.loc	1 0 19 is_stmt 0
	b	.LBB18_6
.Ltmp2453:
.LBB18_3:
	.loc	1 620 14 is_stmt 1
	cmp	w8, #0
	cinc	w9, w8, lt
	asr	w26, w9, #1
.Ltmp2454:
	.loc	1 621 19
	mul	w9, w26, w12
	.loc	1 623 20
	mul	w10, w26, w11
	.loc	1 621 14
	sbfiz	x9, x9, #3, #32
	.loc	1 623 15
	add	x21, x21, x10
.Ltmp2455:
	.loc	1 624 12
	add	x20, x20, x10
.Ltmp2456:
	.loc	1 621 14
	add	x23, x23, x9
.Ltmp2457:
	.loc	1 622 14
	add	x22, x22, x9
.Ltmp2458:
	.loc	1 625 35
	add	x9, x19, #64
.Ltmp2459:
	.loc	1 0 35 is_stmt 0
	str	x9, [sp, #8]
.Ltmp2460:
	b	.LBB18_5
.Ltmp2461:
.LBB18_4:
	mov	w26, wzr
.Ltmp2462:
.LBB18_5:
	mov	w28, w8
.Ltmp2463:
.LBB18_6:
	.loc	1 631 13 is_stmt 1
	ldr	w9, [x27, #196]
.Ltmp2464:
	.loc	1 630 31
	lsr	w25, w11, #2
.Ltmp2465:
	.loc	1 0 31 is_stmt 0
	stp	w12, w11, [sp]
	.loc	1 631 6 is_stmt 1
	cbz	w9, .LBB18_36
.Ltmp2466:
	.loc	1 632 41
	sub	w8, w8, w28
	.loc	1 632 88 is_stmt 0
	sub	w9, w28, w26
	.loc	1 632 3
	mov	w1, wzr
	.loc	1 632 51
	mul	w8, w8, w25
	.loc	1 632 78
	mul	w9, w9, w25
	.loc	1 632 19
	add	x0, x24, x8
	.loc	1 632 68
	sxtw	x2, w9
	.loc	1 632 3
	bl	memset
.Ltmp2467:
	.loc	1 633 23 is_stmt 1
	ldr	w8, [x27, #128]
	.loc	1 633 38 is_stmt 0
	mvn	w9, w26
	add	w8, w8, w9
	.loc	1 633 43
	mul	w8, w8, w25
	.loc	1 634 17 is_stmt 1
	neg	w25, w25
.Ltmp2468:
	.loc	1 633 12
	add	x24, x24, x8
.Ltmp2469:
	.loc	1 640 2
	cmp	w28, w26
	b.le	.LBB18_37
.Ltmp2470:
.LBB18_8:
	.loc	1 0 2 is_stmt 0
	ldp	w9, w7, [sp]
	mov	w16, wzr
	sxtw	x8, w25
	mov	w11, #56
	.loc	1 640 2
	cmp	w9, #1
	csinc	w10, w9, wzr, hi
	add	x9, x24, #1
	lsl	x10, x10, #3
	b	.LBB18_11
.Ltmp2471:
.LBB18_9:
	.loc	1 640 22
	add	x20, x20, x12
	add	x23, x23, x12
	add	x22, x22, x12
	add	x21, x21, x12
.Ltmp2472:
.LBB18_10:
	add	w26, w26, #1
.Ltmp2473:
	.loc	1 640 2
	add	x9, x9, x8
	cmp	w26, w28
	b.eq	.LBB18_38
.Ltmp2474:
.LBB18_11:
	.loc	1 641 3 is_stmt 1
	cmp	w7, #8
	b.lo	.LBB18_10
.Ltmp2475:
	.loc	1 0 3 is_stmt 0
	mov	x12, xzr
	mov	x13, x9
	b	.LBB18_16
.Ltmp2476:
.LBB18_13:
	.loc	1 663 18 is_stmt 1
	str	x14, [x22, x12]
.Ltmp2477:
.LBB18_14:
	.loc	1 0 18 is_stmt 0
	mov	w16, #1
	.loc	1 664 21 is_stmt 1
	strb	w0, [x13]
.Ltmp2478:
.LBB18_15:
	.loc	1 641 17
	add	x12, x12, #8
.Ltmp2479:
	add	x13, x13, #2
.Ltmp2480:
	.loc	1 641 3 is_stmt 0
	cmp	x10, x12
	b.eq	.LBB18_9
.Ltmp2481:
.LBB18_16:
	.loc	1 642 19 is_stmt 1
	ldr	x15, [x23, x12]
.Ltmp2482:
	.loc	1 643 19
	ldr	x14, [x22, x12]
.Ltmp2483:
	.loc	1 645 8
	cmp	x15, x14
	b.eq	.LBB18_15
.Ltmp2484:
	.loc	1 649 28
	eor	x16, x14, x15
.Ltmp2485:
	.loc	1 652 5
	tst	x16, #0xff
.Ltmp2486:
	.loc	1 652 5 is_stmt 0
	b.eq	.LBB18_19
.Ltmp2487:
	.loc	1 652 5
	ldrb	w17, [x20, x12]
.Ltmp2488:
	lsl	w2, w14, #2
	ldrb	w1, [x21, x12]
.Ltmp2489:
	and	x2, x2, #0x3e0
	bfxil	x2, x15, #3, #5
	mov	x3, x14
	bfxil	x3, x15, #0, #8
	add	x0, x19, x17, lsl #3
	cmp	w17, #0
	cinc	x17, x11, ne
.Ltmp2490:
	add	w4, w1, #1
.Ltmp2491:
	ldr	x0, [x0, #128]
.Ltmp2492:
	.loc	1 652 5
	ldrb	w17, [x19, x17]
.Ltmp2493:
	.loc	1 652 5
	add	x0, x0, x1, lsl #10
.Ltmp2494:
	.loc	1 652 5
	cmp	w17, w4, uxtb
.Ltmp2495:
	.loc	1 652 5
	ldrb	w0, [x0, x2]
.Ltmp2496:
	.loc	1 652 5
	cset	w17, eq
.Ltmp2497:
	.loc	1 652 5
	csel	x14, x3, x14, eq
.Ltmp2498:
	csinc	w1, wzr, w1, eq
.Ltmp2499:
	strb	w1, [x21, x12]
	b	.LBB18_20
.Ltmp2500:
.LBB18_19:
	.loc	1 0 5
	mov	w0, wzr
	mov	w17, wzr
.Ltmp2501:
.LBB18_20:
	.loc	1 653 5 is_stmt 1
	add	x1, x21, x12
	tst	x16, #0xff00
.Ltmp2502:
	.loc	1 653 5 is_stmt 0
	b.eq	.LBB18_22
.Ltmp2503:
	.loc	1 653 5
	add	x2, x20, x12
	ldrb	w4, [x1, #1]
.Ltmp2504:
	lsr	x5, x14, #6
	lsr	x6, x15, #8
	and	x5, x5, #0x3e0
	ldrb	w2, [x2, #1]
.Ltmp2505:
	bfxil	x5, x15, #11, #5
	add	x3, x19, x2, lsl #3
	cmp	w2, #0
	cinc	x2, x11, ne
.Ltmp2506:
	ldr	x3, [x3, #128]
.Ltmp2507:
	.loc	1 653 5
	ldrb	w2, [x19, x2]
.Ltmp2508:
	.loc	1 653 5
	add	x3, x3, x4, lsl #10
.Ltmp2509:
	ldrb	w3, [x3, x5]
.Ltmp2510:
	add	w5, w4, #1
.Ltmp2511:
	.loc	1 653 5
	cmp	w2, w5, uxtb
.Ltmp2512:
	.loc	1 653 5
	mov	x2, x14
.Ltmp2513:
	bfi	x2, x6, #8, #8
.Ltmp2514:
	.loc	1 653 5
	cset	w5, eq
.Ltmp2515:
	.loc	1 653 5
	csinc	w4, wzr, w4, eq
	orr	w17, w5, w17
	orr	w0, w0, w3, lsl #2
.Ltmp2516:
	csel	x14, x2, x14, eq
.Ltmp2517:
	strb	w4, [x1, #1]
.Ltmp2518:
.LBB18_22:
	.loc	1 654 5 is_stmt 1
	tst	x16, #0xff0000
.Ltmp2519:
	.loc	1 654 5 is_stmt 0
	b.eq	.LBB18_24
.Ltmp2520:
	.loc	1 654 5
	add	x2, x20, x12
	ldrb	w4, [x1, #2]
.Ltmp2521:
	lsr	x5, x14, #14
	lsr	x6, x15, #16
	and	x5, x5, #0x3e0
	ldrb	w2, [x2, #2]
.Ltmp2522:
	bfxil	x5, x15, #19, #5
	add	x3, x19, x2, lsl #3
	cmp	w2, #0
	cinc	x2, x11, ne
.Ltmp2523:
	ldr	x3, [x3, #128]
.Ltmp2524:
	.loc	1 654 5
	ldrb	w2, [x19, x2]
.Ltmp2525:
	.loc	1 654 5
	add	x3, x3, x4, lsl #10
.Ltmp2526:
	ldrb	w3, [x3, x5]
.Ltmp2527:
	add	w5, w4, #1
.Ltmp2528:
	.loc	1 654 5
	cmp	w2, w5, uxtb
.Ltmp2529:
	.loc	1 654 5
	mov	x2, x14
.Ltmp2530:
	bfi	x2, x6, #16, #8
.Ltmp2531:
	.loc	1 654 5
	cset	w5, eq
.Ltmp2532:
	.loc	1 654 5
	csinc	w4, wzr, w4, eq
	orr	w17, w5, w17
	orr	w0, w0, w3, lsl #4
.Ltmp2533:
	csel	x14, x2, x14, eq
.Ltmp2534:
	strb	w4, [x1, #2]
.Ltmp2535:
.LBB18_24:
	.loc	1 655 5 is_stmt 1
	add	x1, x21, x12
	tst	x16, #0xff000000
.Ltmp2536:
	.loc	1 655 5 is_stmt 0
	b.eq	.LBB18_26
.Ltmp2537:
	.loc	1 655 5
	add	x2, x20, x12
	ldrb	w4, [x1, #3]
.Ltmp2538:
	lsr	x5, x14, #22
	lsr	x6, x15, #24
	and	x5, x5, #0x3e0
	ldrb	w2, [x2, #3]
.Ltmp2539:
	bfxil	x5, x15, #27, #5
	add	x3, x19, x2, lsl #3
	cmp	w2, #0
	cinc	x2, x11, ne
.Ltmp2540:
	ldr	x3, [x3, #128]
.Ltmp2541:
	.loc	1 655 5
	ldrb	w2, [x19, x2]
.Ltmp2542:
	.loc	1 655 5
	add	x3, x3, x4, lsl #10
.Ltmp2543:
	ldrb	w3, [x3, x5]
.Ltmp2544:
	add	w5, w4, #1
.Ltmp2545:
	.loc	1 655 5
	cmp	w2, w5, uxtb
.Ltmp2546:
	.loc	1 655 5
	mov	x2, x14
.Ltmp2547:
	bfi	x2, x6, #24, #8
.Ltmp2548:
	.loc	1 655 5
	cset	w5, eq
.Ltmp2549:
	.loc	1 655 5
	csinc	w4, wzr, w4, eq
	orr	w17, w5, w17
	orr	w0, w0, w3, lsl #6
.Ltmp2550:
	csel	x14, x2, x14, eq
.Ltmp2551:
	strb	w4, [x1, #3]
.Ltmp2552:
.LBB18_26:
	.loc	1 658 5 is_stmt 1
	tst	x16, #0xff00000000
.Ltmp2553:
	.loc	1 656 21
	sturb	w0, [x13, #-1]
.Ltmp2554:
	.loc	1 658 5
	b.eq	.LBB18_28
.Ltmp2555:
	.loc	1 658 5 is_stmt 0
	add	x0, x20, x12
	ldrb	w3, [x1, #4]
.Ltmp2556:
	lsr	x4, x14, #30
	lsr	x5, x15, #32
	and	x4, x4, #0x3e0
	ldrb	w0, [x0, #4]
.Ltmp2557:
	bfxil	x4, x15, #35, #5
	add	w6, w3, #1
.Ltmp2558:
	cmp	w0, #0
	add	x2, x19, x0, lsl #3
	cinc	x0, x11, ne
.Ltmp2559:
	ldr	x2, [x2, #128]
.Ltmp2560:
	.loc	1 658 5
	ldrb	w0, [x19, x0]
.Ltmp2561:
	.loc	1 658 5
	add	x2, x2, x3, lsl #10
.Ltmp2562:
	.loc	1 658 5
	cmp	w0, w6, uxtb
.Ltmp2563:
	.loc	1 658 5
	mov	x6, x14
.Ltmp2564:
	ldrb	w0, [x2, x4]
.Ltmp2565:
	.loc	1 658 5
	cset	w2, eq
.Ltmp2566:
	.loc	1 658 5
	bfi	x6, x5, #32, #8
	csinc	w3, wzr, w3, eq
.Ltmp2567:
	orr	w17, w2, w17
	csel	x14, x6, x14, eq
	strb	w3, [x1, #4]
	b	.LBB18_29
.Ltmp2568:
.LBB18_28:
	.loc	1 0 5
	mov	w0, wzr
.Ltmp2569:
.LBB18_29:
	.loc	1 659 5 is_stmt 1
	add	x1, x21, x12
	tst	x16, #0xff0000000000
.Ltmp2570:
	.loc	1 659 5 is_stmt 0
	b.eq	.LBB18_31
.Ltmp2571:
	.loc	1 659 5
	add	x2, x20, x12
	ldrb	w4, [x1, #5]
.Ltmp2572:
	lsr	x5, x14, #38
	lsr	x6, x15, #40
	and	x5, x5, #0x3e0
	ldrb	w2, [x2, #5]
.Ltmp2573:
	bfxil	x5, x15, #43, #5
	add	x3, x19, x2, lsl #3
	cmp	w2, #0
	cinc	x2, x11, ne
.Ltmp2574:
	ldr	x3, [x3, #128]
.Ltmp2575:
	.loc	1 659 5
	ldrb	w2, [x19, x2]
.Ltmp2576:
	.loc	1 659 5
	add	x3, x3, x4, lsl #10
.Ltmp2577:
	ldrb	w3, [x3, x5]
.Ltmp2578:
	add	w5, w4, #1
.Ltmp2579:
	.loc	1 659 5
	cmp	w2, w5, uxtb
.Ltmp2580:
	.loc	1 659 5
	mov	x2, x14
.Ltmp2581:
	bfi	x2, x6, #40, #8
.Ltmp2582:
	.loc	1 659 5
	cset	w5, eq
.Ltmp2583:
	.loc	1 659 5
	csinc	w4, wzr, w4, eq
.Ltmp2584:
	orr	w17, w5, w17
	orr	w0, w0, w3, lsl #2
.Ltmp2585:
	csel	x14, x2, x14, eq
	strb	w4, [x1, #5]
.Ltmp2586:
.LBB18_31:
	.loc	1 660 5 is_stmt 1
	tst	x16, #0xff000000000000
.Ltmp2587:
	.loc	1 660 5 is_stmt 0
	b.eq	.LBB18_33
.Ltmp2588:
	.loc	1 660 5
	add	x2, x20, x12
	ldrb	w4, [x1, #6]
.Ltmp2589:
	lsr	x5, x14, #46
	lsr	x6, x15, #48
	and	x5, x5, #0x3e0
	ldrb	w2, [x2, #6]
.Ltmp2590:
	bfxil	x5, x15, #51, #5
	add	x3, x19, x2, lsl #3
	cmp	w2, #0
	cinc	x2, x11, ne
.Ltmp2591:
	ldr	x3, [x3, #128]
.Ltmp2592:
	.loc	1 660 5
	ldrb	w2, [x19, x2]
.Ltmp2593:
	.loc	1 660 5
	add	x3, x3, x4, lsl #10
.Ltmp2594:
	ldrb	w3, [x3, x5]
.Ltmp2595:
	add	w5, w4, #1
.Ltmp2596:
	.loc	1 660 5
	cmp	w2, w5, uxtb
.Ltmp2597:
	.loc	1 660 5
	mov	x2, x14
.Ltmp2598:
	bfi	x2, x6, #48, #8
.Ltmp2599:
	.loc	1 660 5
	cset	w5, eq
.Ltmp2600:
	.loc	1 660 5
	csinc	w4, wzr, w4, eq
.Ltmp2601:
	orr	w17, w5, w17
	orr	w0, w0, w3, lsl #4
.Ltmp2602:
	csel	x14, x2, x14, eq
	strb	w4, [x1, #6]
.Ltmp2603:
.LBB18_33:
	.loc	1 661 5 is_stmt 1
	lsr	x16, x16, #56
.Ltmp2604:
	cbnz	x16, .LBB18_35
.Ltmp2605:
	.loc	1 662 9
	cbnz	w17, .LBB18_13
	b	.LBB18_14
.Ltmp2606:
.LBB18_35:
	.loc	1 661 5
	add	x16, x20, x12
.Ltmp2607:
	.loc	1 0 0 is_stmt 0
	add	x1, x21, x12
.Ltmp2608:
	.loc	1 661 5
	lsr	x4, x14, #54
	and	x4, x4, #0x3e0
	ldrb	w16, [x16, #7]
.Ltmp2609:
	bfxil	x4, x15, #59, #5
	bfxil	x15, x14, #0, #56
.Ltmp2610:
	add	x2, x19, x16, lsl #3
	cmp	w16, #0
	ldrb	w16, [x1, #7]
.Ltmp2611:
	cinc	x3, x11, ne
	ldr	x2, [x2, #128]
.Ltmp2612:
	.loc	1 661 5
	ldrb	w3, [x19, x3]
.Ltmp2613:
	.loc	1 661 5
	add	x2, x2, x16, lsl #10
.Ltmp2614:
	ldrb	w2, [x2, x4]
.Ltmp2615:
	add	w4, w16, #1
.Ltmp2616:
	.loc	1 661 5
	cmp	w3, w4, uxtb
	cset	w3, eq
.Ltmp2617:
	.loc	1 661 5
	csinc	w16, wzr, w16, eq
.Ltmp2618:
	orr	w17, w3, w17
	csel	x14, x15, x14, eq
.Ltmp2619:
	orr	w0, w0, w2, lsl #6
.Ltmp2620:
	strb	w16, [x1, #7]
.Ltmp2621:
	.loc	1 662 9 is_stmt 1
	tbnz	w17, #0, .LBB18_13
	b	.LBB18_14
.Ltmp2622:
.LBB18_36:
	.loc	1 637 43
	sub	w8, w28, w26
	.loc	1 636 17
	mul	w9, w26, w25
	.loc	1 637 3
	mov	w1, wzr
	.loc	1 637 33 is_stmt 0
	mul	w8, w8, w25
	.loc	1 636 12 is_stmt 1
	add	x24, x24, w9, sxtw
.Ltmp2623:
	.loc	1 637 23
	sxtw	x2, w8
	.loc	1 637 3 is_stmt 0
	mov	x0, x24
	bl	memset
.Ltmp2624:
	.loc	1 640 2 is_stmt 1
	cmp	w28, w26
	b.gt	.LBB18_8
.Ltmp2625:
.LBB18_37:
	.loc	1 0 2 is_stmt 0
	mov	w16, wzr
.Ltmp2626:
.LBB18_38:
	ldr	x8, [sp, #8]
	.loc	1 675 1 is_stmt 1
	ldp	x20, x19, [sp, #96]
.Ltmp2627:
	ldp	x22, x21, [sp, #80]
.Ltmp2628:
	.loc	1 674 21
	str	w16, [x8]
	.loc	1 675 1
	ldp	x24, x23, [sp, #64]
.Ltmp2629:
	ldp	x26, x25, [sp, #48]
.Ltmp2630:
	ldp	x28, x27, [sp, #32]
.Ltmp2631:
	ldp	x29, x30, [sp, #16]
	ldr	x30, [x18, #-8]!
	add	sp, sp, #112
.Ltmp2632:
	ret
.Ltmp2633:
.Lfunc_end18:
	.size	get_overlay_image, .Lfunc_end18-get_overlay_image
	.cfi_endproc

	.p2align	2
	.type	get_overlay_image_area2,@function
get_overlay_image_area2:
.Lfunc_begin19:
	.loc	1 1009 0
	.cfi_startproc
	sub	sp, sp, #160
	str	x30, [x18], #8
	.cfi_escape 0x16, 0x12, 0x02, 0x82, 0x78
	stp	x29, x30, [sp, #64]
	stp	x28, x27, [sp, #80]
	stp	x26, x25, [sp, #96]
	stp	x24, x23, [sp, #112]
	stp	x22, x21, [sp, #128]
	stp	x20, x19, [sp, #144]
	.cfi_def_cfa_offset 160
	.cfi_offset w19, -8
	.cfi_offset w20, -16
	.cfi_offset w21, -24
	.cfi_offset w22, -32
	.cfi_offset w23, -40
	.cfi_offset w24, -48
	.cfi_offset w25, -56
	.cfi_offset w26, -64
	.cfi_offset w27, -72
	.cfi_offset w28, -80
	.cfi_offset w30, -88
	.cfi_offset w29, -96
.Ltmp2634:
	.loc	1 1026 21 prologue_end
	ldr	x9, [x5, #240]
	stp	x3, x0, [sp, #48]
.Ltmp2635:
	.loc	1 1031 20
	ldp	w11, w10, [x5, #92]
.Ltmp2636:
	.loc	1 1026 35
	ldp	w12, w8, [x9, #48]
.Ltmp2637:
	.loc	1 1027 36
	ldp	w13, w14, [x9, #56]
.Ltmp2638:
	.loc	1 1031 26
	add	w15, w10, #7
	.loc	1 1026 42
	add	w9, w12, #7
	cmp	w12, #0
	csel	w12, w9, w12, lt
.Ltmp2639:
	.loc	1 1027 43
	add	w9, w13, #7
	cmp	w13, #0
	csel	w9, w9, w13, lt
	.loc	1 1031 26
	cmp	w10, #0
	.loc	1 1027 43
	asr	w13, w9, #3
	.loc	1 1031 26
	csel	w9, w15, w10, lt
	.loc	1 1027 48
	add	w10, w13, #1
.Ltmp2640:
	.loc	1 1031 26
	asr	w9, w9, #3
.Ltmp2641:
	.loc	1 0 26 is_stmt 0
	sub	w15, w9, #1
	.loc	1 1033 6 is_stmt 1
	cmp	w10, w9
	csinc	w10, w15, w13, ge
.Ltmp2642:
	.loc	1 1035 6
	sub	w13, w11, #1
	cmp	w14, w11
	csel	w11, w14, w13, lt
.Ltmp2643:
	.loc	1 1039 2
	cmp	w8, w11
	b.le	.LBB19_2
.Ltmp2644:
.LBB19_1:
	.loc	1 1058 1
	ldp	x20, x19, [sp, #144]
	ldp	x22, x21, [sp, #128]
	ldp	x24, x23, [sp, #112]
	ldp	x26, x25, [sp, #96]
	ldp	x28, x27, [sp, #80]
	ldp	x29, x30, [sp, #64]
	ldr	x30, [x18, #-8]!
	add	sp, sp, #160
	ret
.Ltmp2645:
.LBB19_2:
	.loc	1 0 0 is_stmt 0
	adrp	x13, global_ebc
.Ltmp2646:
	.loc	1 1039 2 is_stmt 1
	add	w15, w10, #1
	sxtw	x17, w15
	mov	w6, #1
.Ltmp2647:
	.loc	1 0 0 is_stmt 0
	ldr	x14, [x13, :lo12:global_ebc]
.Ltmp2648:
	asr	w13, w12, #3
.Ltmp2649:
	.loc	1 1039 2
	sbfiz	x15, x13, #3, #32
	sxtw	x16, w13
	add	x0, x1, x15
	add	x15, x2, x15
.Ltmp2650:
	.loc	1 1038 45 is_stmt 1
	ldr	w12, [x14, #124]
.Ltmp2651:
	.loc	1 0 45 is_stmt 0
	str	x14, [sp, #40]
.Ltmp2652:
	.loc	1 1039 2 is_stmt 1
	mul	w14, w8, w9
	sbfiz	x3, x13, #2, #32
	str	x15, [sp, #16]
	lsl	w15, w13, #3
.Ltmp2653:
	.loc	1 1038 36
	mul	w12, w12, w8
.Ltmp2654:
	.loc	1 0 36 is_stmt 0
	stp	x0, x3, [sp, #24]
	str	w15, [sp, #12]
	ldr	x15, [sp, #56]
.Ltmp2655:
	.loc	1 1038 55
	lsr	w12, w12, #2
.Ltmp2656:
	.loc	1 1038 26
	add	x4, x15, x12
.Ltmp2657:
	.loc	1 1039 2 is_stmt 1
	sub	x12, x17, x16
	str	x12, [sp]
	b	.LBB19_4
.Ltmp2658:
.LBB19_3:
	.loc	1 1039 33 is_stmt 0
	add	w8, w8, #1
.Ltmp2659:
	.loc	1 1039 2
	add	w14, w14, w9
	cmp	w8, w11
	b.gt	.LBB19_1
.Ltmp2660:
.LBB19_4:
	.loc	1 1040 7 is_stmt 1
	tbnz	w8, #0, .LBB19_6
.Ltmp2661:
	.loc	1 0 7 is_stmt 0
	ldr	x12, [sp, #40]
	ldr	x15, [sp, #56]
.Ltmp2662:
	.loc	1 1041 42 is_stmt 1
	ldr	w12, [x12, #124]
	.loc	1 1041 33 is_stmt 0
	mul	w12, w12, w8
	.loc	1 1041 52
	lsr	w12, w12, #2
	.loc	1 1041 28
	add	x4, x15, x12
.Ltmp2663:
.LBB19_6:
	.loc	1 1047 3 is_stmt 1
	cmp	w13, w10
	b.gt	.LBB19_3
.Ltmp2664:
	.loc	1 0 3 is_stmt 0
	ldr	x15, [sp, #24]
	sbfiz	x12, x14, #3, #32
	ldr	w16, [x5, #96]
	mov	w21, #4
	mov	w22, #8
	mov	w23, #12
	add	x7, x15, x12
	ldr	x15, [sp, #16]
	mov	w25, #16
	mov	w26, #20
	mov	w27, #24
	mov	w28, #28
	add	x19, x15, x12
	and	w12, w8, #0x1
	lsl	w20, w12, #1
	mul	w16, w16, w8
	ldr	x15, [sp, #48]
	bfi	w21, w12, #1, #1
	bfi	w22, w12, #1, #1
	bfi	w23, w12, #1, #1
	bfi	w25, w12, #1, #1
	bfi	w26, w12, #1, #1
	bfi	w27, w12, #1, #1
	bfi	w28, w12, #1, #1
	ldr	x12, [sp, #32]
	add	x24, x15, w16, sxtw
.Ltmp2665:
	ldr	x30, [sp]
	ldr	w1, [sp, #12]
.Ltmp2666:
	.loc	1 1047 3
	add	x29, x4, x12
	b	.LBB19_10
.Ltmp2667:
.LBB19_8:
	.loc	1 1054 29 is_stmt 1
	ldr	w12, [x29]
	orr	w12, w12, w17
	str	w12, [x29]
.Ltmp2668:
.LBB19_9:
	.loc	1 1047 22
	add	x7, x7, #8
	add	x19, x19, #8
	add	x29, x29, #4
	add	w1, w1, #8
	subs	x30, x30, #1
.Ltmp2669:
	.loc	1 1047 3 is_stmt 0
	b.eq	.LBB19_3
.Ltmp2670:
.LBB19_10:
	.loc	1 1048 15 is_stmt 1
	ldr	x3, [x7]
.Ltmp2671:
	.loc	1 1049 15
	ldr	x16, [x19]
.Ltmp2672:
	.loc	1 1052 8
	cmp	x3, x16
	b.eq	.LBB19_9
.Ltmp2673:
	.loc	1 1050 39
	add	x0, x24, w1, sxtw
.Ltmp2674:
	.loc	1 1053 34
	str	w6, [x5, #60]
.Ltmp2675:
	.loc	1 925 21
	eor	x12, x16, x3
.Ltmp2676:
	.loc	1 927 15
	and	x15, x12, #0xff
.Ltmp2677:
	.loc	1 926 21
	ldrb	w17, [x0]
.Ltmp2678:
	.loc	1 927 23
	cmp	x15, #0
	ccmp	w17, #0, #0, ne
	b.eq	.LBB19_13
.Ltmp2679:
	.loc	1 0 23 is_stmt 0
	mov	w17, wzr
.Ltmp2680:
	.loc	1 937 15 is_stmt 1
	tst	x12, #0xff00
	.loc	1 937 25 is_stmt 0
	b.ne	.LBB19_14
	b	.LBB19_16
.Ltmp2681:
.LBB19_13:
	.loc	1 930 35 is_stmt 1
	lsl	w15, w16, #2
	.loc	1 929 17
	ldr	x17, [x5, #128]
.Ltmp2682:
	.loc	1 930 40
	and	x15, x15, #0x3e0
	.loc	1 930 49 is_stmt 0
	bfxil	x15, x3, #3, #5
	.loc	1 930 16
	ldrb	w15, [x17, x15]
.Ltmp2683:
	.loc	1 932 16 is_stmt 1
	strb	w6, [x0]
	.loc	1 931 27
	lsl	w17, w15, w20
.Ltmp2684:
	.loc	1 937 15
	tst	x12, #0xff00
	.loc	1 937 25 is_stmt 0
	b.eq	.LBB19_16
.Ltmp2685:
.LBB19_14:
	.loc	1 0 0
	ldrb	w15, [x0, #1]
.Ltmp2686:
	.loc	1 937 25
	cbnz	w15, .LBB19_16
.Ltmp2687:
	.loc	1 940 35 is_stmt 1
	lsr	x15, x16, #6
	.loc	1 939 17
	ldr	x2, [x5, #128]
.Ltmp2688:
	.loc	1 940 40
	and	x15, x15, #0x3e0
	.loc	1 940 49 is_stmt 0
	bfxil	x15, x3, #11, #5
	.loc	1 940 16
	ldrb	w15, [x2, x15]
.Ltmp2689:
	.loc	1 942 16 is_stmt 1
	strb	w6, [x0, #1]
	.loc	1 941 27
	lsl	w15, w15, w21
.Ltmp2690:
	.loc	1 941 13 is_stmt 0
	orr	w17, w15, w17
.Ltmp2691:
.LBB19_16:
	.loc	1 947 15 is_stmt 1
	tst	x12, #0xff0000
	.loc	1 947 27 is_stmt 0
	b.eq	.LBB19_19
.Ltmp2692:
	.loc	1 0 0
	ldrb	w15, [x0, #2]
.Ltmp2693:
	.loc	1 947 27
	cbnz	w15, .LBB19_19
.Ltmp2694:
	.loc	1 950 35 is_stmt 1
	lsr	x15, x16, #14
	.loc	1 949 17
	ldr	x2, [x5, #128]
.Ltmp2695:
	.loc	1 950 41
	and	x15, x15, #0x3e0
	.loc	1 950 50 is_stmt 0
	bfxil	x15, x3, #19, #5
	.loc	1 950 16
	ldrb	w15, [x2, x15]
.Ltmp2696:
	.loc	1 952 16 is_stmt 1
	strb	w6, [x0, #2]
	.loc	1 951 27
	lsl	w15, w15, w22
.Ltmp2697:
	.loc	1 951 13 is_stmt 0
	orr	w17, w15, w17
.Ltmp2698:
.LBB19_19:
	.loc	1 957 15 is_stmt 1
	tst	x12, #0xff000000
	.loc	1 957 29 is_stmt 0
	b.eq	.LBB19_22
.Ltmp2699:
	.loc	1 0 0
	ldrb	w15, [x0, #3]
.Ltmp2700:
	.loc	1 957 29
	cbnz	w15, .LBB19_22
.Ltmp2701:
	.loc	1 960 35 is_stmt 1
	lsr	x15, x16, #22
	.loc	1 959 17
	ldr	x2, [x5, #128]
.Ltmp2702:
	.loc	1 960 41
	and	x15, x15, #0x3e0
	.loc	1 960 50 is_stmt 0
	bfxil	x15, x3, #27, #5
	.loc	1 960 16
	ldrb	w15, [x2, x15]
.Ltmp2703:
	.loc	1 962 16 is_stmt 1
	strb	w6, [x0, #3]
	.loc	1 961 27
	lsl	w15, w15, w23
.Ltmp2704:
	.loc	1 961 13 is_stmt 0
	orr	w17, w15, w17
.Ltmp2705:
.LBB19_22:
	.loc	1 967 15 is_stmt 1
	tst	x12, #0xff00000000
	.loc	1 967 31 is_stmt 0
	b.eq	.LBB19_25
.Ltmp2706:
	.loc	1 0 0
	ldrb	w15, [x0, #4]
.Ltmp2707:
	.loc	1 967 31
	cbnz	w15, .LBB19_25
.Ltmp2708:
	.loc	1 970 35 is_stmt 1
	lsr	x15, x16, #30
	.loc	1 969 17
	ldr	x2, [x5, #128]
.Ltmp2709:
	.loc	1 970 41
	and	x15, x15, #0x3e0
	.loc	1 970 50 is_stmt 0
	bfxil	x15, x3, #35, #5
	.loc	1 970 16
	ldrb	w15, [x2, x15]
.Ltmp2710:
	.loc	1 972 16 is_stmt 1
	strb	w6, [x0, #4]
	.loc	1 971 27
	lsl	w15, w15, w25
.Ltmp2711:
	.loc	1 971 13 is_stmt 0
	orr	w17, w15, w17
.Ltmp2712:
.LBB19_25:
	.loc	1 977 15 is_stmt 1
	tst	x12, #0xff0000000000
	.loc	1 977 33 is_stmt 0
	b.eq	.LBB19_28
.Ltmp2713:
	.loc	1 0 0
	ldrb	w15, [x0, #5]
.Ltmp2714:
	.loc	1 977 33
	cbnz	w15, .LBB19_28
.Ltmp2715:
	.loc	1 980 35 is_stmt 1
	lsr	x15, x16, #38
	.loc	1 979 17
	ldr	x2, [x5, #128]
.Ltmp2716:
	.loc	1 980 41
	and	x15, x15, #0x3e0
	.loc	1 980 50 is_stmt 0
	bfxil	x15, x3, #43, #5
	.loc	1 980 16
	ldrb	w15, [x2, x15]
.Ltmp2717:
	.loc	1 982 16 is_stmt 1
	strb	w6, [x0, #5]
	.loc	1 981 27
	lsl	w15, w15, w26
.Ltmp2718:
	.loc	1 981 13 is_stmt 0
	orr	w17, w15, w17
.Ltmp2719:
.LBB19_28:
	.loc	1 987 15 is_stmt 1
	tst	x12, #0xff000000000000
	.loc	1 987 35 is_stmt 0
	b.eq	.LBB19_31
.Ltmp2720:
	.loc	1 0 0
	ldrb	w15, [x0, #6]
.Ltmp2721:
	.loc	1 987 35
	cbnz	w15, .LBB19_31
.Ltmp2722:
	.loc	1 990 35 is_stmt 1
	lsr	x15, x16, #46
	.loc	1 989 17
	ldr	x2, [x5, #128]
.Ltmp2723:
	.loc	1 990 41
	and	x15, x15, #0x3e0
	.loc	1 990 50 is_stmt 0
	bfxil	x15, x3, #51, #5
	.loc	1 990 16
	ldrb	w15, [x2, x15]
.Ltmp2724:
	.loc	1 992 16 is_stmt 1
	strb	w6, [x0, #6]
	.loc	1 991 27
	lsl	w15, w15, w27
.Ltmp2725:
	.loc	1 991 13 is_stmt 0
	orr	w17, w15, w17
.Ltmp2726:
.LBB19_31:
	.loc	1 997 37 is_stmt 1
	lsr	x12, x12, #56
.Ltmp2727:
	cbz	x12, .LBB19_8
.Ltmp2728:
	.loc	1 0 0 is_stmt 0
	ldrb	w12, [x0, #7]
.Ltmp2729:
	.loc	1 997 37
	cbnz	w12, .LBB19_8
.Ltmp2730:
	.loc	1 1000 35 is_stmt 1
	lsr	x12, x16, #54
	.loc	1 999 17
	ldr	x15, [x5, #128]
.Ltmp2731:
	.loc	1 1000 41
	and	x12, x12, #0x3e0
	.loc	1 1000 50 is_stmt 0
	bfxil	x12, x3, #59, #5
	.loc	1 1000 16
	ldrb	w12, [x15, x12]
.Ltmp2732:
	.loc	1 1002 16 is_stmt 1
	strb	w6, [x0, #7]
.Ltmp2733:
	.loc	1 1001 27
	lsl	w12, w12, w28
.Ltmp2734:
	.loc	1 1001 13 is_stmt 0
	orr	w17, w12, w17
.Ltmp2735:
	.loc	1 0 13
	b	.LBB19_8
.Ltmp2736:
.Lfunc_end19:
	.size	get_overlay_image_area2, .Lfunc_end19-get_overlay_image_area2
	.cfi_endproc

	.p2align	2
	.type	get_overlay_image_area,@function
get_overlay_image_area:
.Lfunc_begin20:
	.loc	1 771 0 is_stmt 1
	.cfi_startproc
	sub	sp, sp, #144
	str	x30, [x18], #8
	.cfi_escape 0x16, 0x12, 0x02, 0x82, 0x78
	stp	x29, x30, [sp, #48]
	stp	x28, x27, [sp, #64]
	stp	x26, x25, [sp, #80]
	stp	x24, x23, [sp, #96]
	stp	x22, x21, [sp, #112]
	stp	x20, x19, [sp, #128]
	.cfi_def_cfa_offset 144
	.cfi_offset w19, -8
	.cfi_offset w20, -16
	.cfi_offset w21, -24
	.cfi_offset w22, -32
	.cfi_offset w23, -40
	.cfi_offset w24, -48
	.cfi_offset w25, -56
	.cfi_offset w26, -64
	.cfi_offset w27, -72
	.cfi_offset w28, -80
	.cfi_offset w30, -88
	.cfi_offset w29, -96
.Ltmp2737:
	.loc	1 795 21 prologue_end
	ldr	x9, [x5, #240]
	stp	x3, x4, [sp, #32]
.Ltmp2738:
	.loc	1 800 20
	ldp	w11, w10, [x5, #92]
.Ltmp2739:
	.loc	1 0 20 is_stmt 0
	str	x0, [sp, #24]
.Ltmp2740:
	.loc	1 795 35 is_stmt 1
	ldp	w12, w8, [x9, #48]
.Ltmp2741:
	.loc	1 796 36
	ldp	w13, w14, [x9, #56]
.Ltmp2742:
	.loc	1 800 26
	add	w15, w10, #7
	.loc	1 795 42
	add	w9, w12, #7
	cmp	w12, #0
	csel	w12, w9, w12, lt
.Ltmp2743:
	.loc	1 796 43
	add	w9, w13, #7
	cmp	w13, #0
	csel	w9, w9, w13, lt
	.loc	1 800 26
	cmp	w10, #0
	.loc	1 796 43
	asr	w13, w9, #3
	.loc	1 800 26
	csel	w9, w15, w10, lt
	.loc	1 796 48
	add	w10, w13, #1
.Ltmp2744:
	.loc	1 800 26
	asr	w9, w9, #3
.Ltmp2745:
	.loc	1 0 26 is_stmt 0
	sub	w15, w9, #1
	.loc	1 802 6 is_stmt 1
	cmp	w10, w9
	csinc	w10, w15, w13, ge
.Ltmp2746:
	.loc	1 804 6
	sub	w13, w11, #1
	cmp	w14, w11
	csel	w11, w14, w13, lt
.Ltmp2747:
	.loc	1 807 2
	cmp	w8, w11
	b.le	.LBB20_2
.Ltmp2748:
.LBB20_1:
	.loc	1 913 1
	ldp	x20, x19, [sp, #128]
	ldp	x22, x21, [sp, #112]
	ldp	x24, x23, [sp, #96]
	ldp	x26, x25, [sp, #80]
	ldp	x28, x27, [sp, #64]
	ldp	x29, x30, [sp, #48]
	ldr	x30, [x18, #-8]!
	add	sp, sp, #144
	ret
.Ltmp2749:
.LBB20_2:
	.loc	1 0 0 is_stmt 0
	adrp	x14, global_ebc
	asr	w12, w12, #3
.Ltmp2750:
	.loc	1 807 2 is_stmt 1
	lsl	w16, w12, #3
	add	w15, w10, #1
	mul	w13, w8, w9
	sxtw	x0, w12
.Ltmp2751:
	.loc	1 0 0 is_stmt 0
	ldr	x14, [x14, :lo12:global_ebc]
.Ltmp2752:
	sxtw	x15, w15
.Ltmp2753:
	.loc	1 807 2
	sbfiz	x3, x12, #3, #32
	str	w16, [sp, #20]
	lsl	w16, w12, #1
	add	x17, x1, x3
	add	x1, x2, x3
.Ltmp2754:
	.loc	1 0 0
	ldr	w2, [x14, #196]
.Ltmp2755:
	.loc	1 807 2
	sub	x6, x15, x0
	mov	w7, #1
	str	x17, [sp, #8]
	b	.LBB20_4
.Ltmp2756:
.LBB20_3:
	.loc	1 807 33
	add	w8, w8, #1
.Ltmp2757:
	.loc	1 807 2
	add	w13, w13, w9
	cmp	w8, w11
	b.gt	.LBB20_1
.Ltmp2758:
.LBB20_4:
	.loc	1 808 7 is_stmt 1
	cbz	w2, .LBB20_6
.Ltmp2759:
	.loc	1 809 39
	ldp	w0, w15, [x14, #124]
	.loc	1 809 54 is_stmt 0
	mvn	w3, w8
.Ltmp2760:
	add	w15, w15, w3
.Ltmp2761:
	.loc	1 817 3 is_stmt 1
	cmp	w12, w10
	b.gt	.LBB20_3
	b	.LBB20_7
.Ltmp2762:
.LBB20_6:
	.loc	1 811 42
	ldr	w15, [x14, #124]
	mov	w0, w8
.Ltmp2763:
	.loc	1 817 3
	cmp	w12, w10
	b.gt	.LBB20_3
.Ltmp2764:
.LBB20_7:
	.loc	1 0 3 is_stmt 0
	ldr	x17, [sp, #8]
	sbfiz	x4, x13, #3, #32
	ldr	w3, [x5, #96]
	mul	w15, w15, w0
	mov	x19, x6
	add	x21, x1, x4
	add	x20, x17, x4
	ldr	x17, [sp, #24]
	mul	w0, w3, w8
	mov	w25, w16
	ldr	w26, [sp, #20]
	add	x22, x17, x15, lsr #2
.Ltmp2765:
	ldr	x17, [sp, #32]
	sxtw	x15, w0
	add	x23, x17, x15
.Ltmp2766:
	ldr	x17, [sp, #40]
	add	x24, x17, x15
.Ltmp2767:
	b	.LBB20_10
.Ltmp2768:
.LBB20_8:
	.loc	1 909 22 is_stmt 1
	strb	w0, [x27, #1]
.Ltmp2769:
.LBB20_9:
	.loc	1 817 22
	add	w26, w26, #8
.Ltmp2770:
	add	w25, w25, #2
	add	x20, x20, #8
	add	x21, x21, #8
	subs	x19, x19, #1
.Ltmp2771:
	.loc	1 817 3 is_stmt 0
	b.eq	.LBB20_3
.Ltmp2772:
.LBB20_10:
	.loc	1 821 15 is_stmt 1
	ldr	x28, [x20]
.Ltmp2773:
	.loc	1 822 15
	ldr	x29, [x21]
.Ltmp2774:
	.loc	1 825 8
	cmp	x28, x29
	b.eq	.LBB20_9
.Ltmp2775:
	.loc	1 0 0 is_stmt 0
	add	x27, x22, w25, sxtw
.Ltmp2776:
	sxtw	x15, w26
	add	x30, x23, x15
.Ltmp2777:
	add	x15, x24, x15
.Ltmp2778:
	.loc	1 827 24 is_stmt 1
	eor	x4, x29, x28
.Ltmp2779:
	.loc	1 0 0 is_stmt 0
	ldrb	w3, [x27]
.Ltmp2780:
	.loc	1 829 18 is_stmt 1
	tst	x4, #0xff
.Ltmp2781:
	.loc	1 826 34
	str	w7, [x5, #60]
.Ltmp2782:
	.loc	1 829 26
	b.eq	.LBB20_14
.Ltmp2783:
	.loc	1 0 0 is_stmt 0
	ldrb	w0, [x30]
.Ltmp2784:
	.loc	1 829 26
	cbnz	w0, .LBB20_14
.Ltmp2785:
	.loc	1 830 22 is_stmt 1
	ldrb	w0, [x15]
.Ltmp2786:
	.loc	1 832 38
	lsl	w17, w29, #2
	.loc	1 832 43 is_stmt 0
	and	x17, x17, #0x3e0
	.loc	1 832 52
	bfxil	x17, x28, #3, #5
	.loc	1 831 20 is_stmt 1
	add	x0, x5, x0, lsl #3
	ldr	x0, [x0, #128]
.Ltmp2787:
	.loc	1 832 19
	ldrb	w17, [x0, x17]
.Ltmp2788:
	.loc	1 834 24
	strb	w7, [x30]
	.loc	1 833 16
	orr	w3, w17, w3
.Ltmp2789:
.LBB20_14:
	.loc	1 839 18
	tst	x4, #0xff00
	.loc	1 839 28 is_stmt 0
	b.eq	.LBB20_17
.Ltmp2790:
	.loc	1 0 0
	ldrb	w17, [x30, #1]
.Ltmp2791:
	.loc	1 839 28
	cbnz	w17, .LBB20_17
.Ltmp2792:
	.loc	1 840 22 is_stmt 1
	ldrb	w17, [x15, #1]
.Ltmp2793:
	.loc	1 842 38
	lsr	x0, x29, #6
	.loc	1 842 43 is_stmt 0
	and	x0, x0, #0x3e0
	.loc	1 842 52
	bfxil	x0, x28, #11, #5
	.loc	1 841 20 is_stmt 1
	add	x17, x5, x17, lsl #3
	ldr	x17, [x17, #128]
.Ltmp2794:
	.loc	1 842 19
	ldrb	w17, [x17, x0]
.Ltmp2795:
	.loc	1 844 24
	strb	w7, [x30, #1]
	.loc	1 843 16
	orr	w3, w3, w17, lsl #2
.Ltmp2796:
.LBB20_17:
	.loc	1 849 18
	tst	x4, #0xff0000
.Ltmp2797:
	.loc	1 849 30 is_stmt 0
	b.eq	.LBB20_20
.Ltmp2798:
	.loc	1 0 0
	ldrb	w17, [x30, #2]
.Ltmp2799:
	.loc	1 849 30
	cbnz	w17, .LBB20_20
.Ltmp2800:
	.loc	1 850 22 is_stmt 1
	ldrb	w17, [x15, #2]
.Ltmp2801:
	.loc	1 852 38
	lsr	x0, x29, #14
	.loc	1 852 44 is_stmt 0
	and	x0, x0, #0x3e0
	.loc	1 852 53
	bfxil	x0, x28, #19, #5
	.loc	1 851 20 is_stmt 1
	add	x17, x5, x17, lsl #3
	ldr	x17, [x17, #128]
.Ltmp2802:
	.loc	1 852 19
	ldrb	w17, [x17, x0]
.Ltmp2803:
	.loc	1 854 24
	strb	w7, [x30, #2]
	.loc	1 853 16
	orr	w3, w3, w17, lsl #4
.Ltmp2804:
.LBB20_20:
	.loc	1 859 18
	tst	x4, #0xff000000
.Ltmp2805:
	.loc	1 859 32 is_stmt 0
	b.eq	.LBB20_23
.Ltmp2806:
	.loc	1 0 0
	ldrb	w17, [x30, #3]
.Ltmp2807:
	.loc	1 859 32
	cbnz	w17, .LBB20_23
.Ltmp2808:
	.loc	1 860 22 is_stmt 1
	ldrb	w17, [x15, #3]
.Ltmp2809:
	.loc	1 862 38
	lsr	x0, x29, #22
	.loc	1 862 44 is_stmt 0
	and	x0, x0, #0x3e0
	.loc	1 862 53
	bfxil	x0, x28, #27, #5
	.loc	1 861 20 is_stmt 1
	add	x17, x5, x17, lsl #3
	ldr	x17, [x17, #128]
.Ltmp2810:
	.loc	1 862 19
	ldrb	w17, [x17, x0]
.Ltmp2811:
	.loc	1 864 24
	strb	w7, [x30, #3]
	.loc	1 863 16
	orr	w3, w3, w17, lsl #6
.Ltmp2812:
.LBB20_23:
	.loc	1 868 17
	ldrb	w0, [x27, #1]
.Ltmp2813:
	.loc	1 872 18
	tst	x4, #0xff00000000
.Ltmp2814:
	.loc	1 866 22
	strb	w3, [x27]
.Ltmp2815:
	.loc	1 872 34
	b.eq	.LBB20_26
.Ltmp2816:
	.loc	1 0 0 is_stmt 0
	ldrb	w17, [x30, #4]
.Ltmp2817:
	.loc	1 872 34
	cbnz	w17, .LBB20_26
.Ltmp2818:
	.loc	1 873 22 is_stmt 1
	ldrb	w17, [x15, #4]
.Ltmp2819:
	.loc	1 875 38
	lsr	x3, x29, #30
	.loc	1 875 44 is_stmt 0
	and	x3, x3, #0x3e0
	.loc	1 875 53
	bfxil	x3, x28, #35, #5
	.loc	1 874 20 is_stmt 1
	add	x17, x5, x17, lsl #3
	ldr	x17, [x17, #128]
.Ltmp2820:
	.loc	1 875 19
	ldrb	w17, [x17, x3]
.Ltmp2821:
	.loc	1 877 24
	strb	w7, [x30, #4]
	.loc	1 876 16
	orr	w0, w17, w0
.Ltmp2822:
.LBB20_26:
	.loc	1 882 18
	tst	x4, #0xff0000000000
.Ltmp2823:
	.loc	1 882 36 is_stmt 0
	b.eq	.LBB20_29
.Ltmp2824:
	.loc	1 0 0
	ldrb	w17, [x30, #5]
.Ltmp2825:
	.loc	1 882 36
	cbnz	w17, .LBB20_29
.Ltmp2826:
	.loc	1 883 22 is_stmt 1
	ldrb	w17, [x15, #5]
.Ltmp2827:
	.loc	1 885 38
	lsr	x3, x29, #38
	.loc	1 885 44 is_stmt 0
	and	x3, x3, #0x3e0
	.loc	1 885 53
	bfxil	x3, x28, #43, #5
	.loc	1 884 20 is_stmt 1
	add	x17, x5, x17, lsl #3
	ldr	x17, [x17, #128]
.Ltmp2828:
	.loc	1 885 19
	ldrb	w17, [x17, x3]
.Ltmp2829:
	.loc	1 887 24
	strb	w7, [x30, #5]
	.loc	1 886 16
	orr	w0, w0, w17, lsl #2
.Ltmp2830:
.LBB20_29:
	.loc	1 892 18
	tst	x4, #0xff000000000000
.Ltmp2831:
	.loc	1 892 38 is_stmt 0
	b.eq	.LBB20_32
.Ltmp2832:
	.loc	1 0 0
	ldrb	w17, [x30, #6]
.Ltmp2833:
	.loc	1 892 38
	cbnz	w17, .LBB20_32
.Ltmp2834:
	.loc	1 893 22 is_stmt 1
	ldrb	w17, [x15, #6]
.Ltmp2835:
	.loc	1 895 38
	lsr	x3, x29, #46
	.loc	1 895 44 is_stmt 0
	and	x3, x3, #0x3e0
	.loc	1 895 53
	bfxil	x3, x28, #51, #5
	.loc	1 894 20 is_stmt 1
	add	x17, x5, x17, lsl #3
	ldr	x17, [x17, #128]
.Ltmp2836:
	.loc	1 895 19
	ldrb	w17, [x17, x3]
.Ltmp2837:
	.loc	1 897 24
	strb	w7, [x30, #6]
	.loc	1 896 16
	orr	w0, w0, w17, lsl #4
.Ltmp2838:
.LBB20_32:
	.loc	1 902 40
	lsr	x17, x4, #56
.Ltmp2839:
	cbz	x17, .LBB20_8
.Ltmp2840:
	.loc	1 0 0 is_stmt 0
	ldrb	w17, [x30, #7]
.Ltmp2841:
	.loc	1 902 40
	cbnz	w17, .LBB20_8
.Ltmp2842:
	.loc	1 903 22 is_stmt 1
	ldrb	w15, [x15, #7]
.Ltmp2843:
	.loc	1 905 38
	lsr	x17, x29, #54
	.loc	1 905 44 is_stmt 0
	and	x17, x17, #0x3e0
	.loc	1 905 53
	bfxil	x17, x28, #59, #5
	.loc	1 904 20 is_stmt 1
	add	x15, x5, x15, lsl #3
	ldr	x15, [x15, #128]
.Ltmp2844:
	.loc	1 905 19
	ldrb	w15, [x15, x17]
.Ltmp2845:
	.loc	1 907 24
	strb	w7, [x30, #7]
	.loc	1 906 16
	orr	w0, w0, w15, lsl #6
.Ltmp2846:
	.loc	1 0 16 is_stmt 0
	b	.LBB20_8
.Ltmp2847:
.Lfunc_end20:
	.size	get_overlay_image_area, .Lfunc_end20-get_overlay_image_area
	.cfi_endproc

	.p2align	2
	.type	get_auto_image2,@function
get_auto_image2:
.Lfunc_begin21:
	.loc	1 1352 0 is_stmt 1
	.cfi_startproc
	sub	sp, sp, #144
	str	x30, [x18], #8
	.cfi_escape 0x16, 0x12, 0x02, 0x82, 0x78
	stp	x29, x30, [sp, #48]
	add	x29, sp, #48
	stp	x28, x27, [sp, #64]
	stp	x26, x25, [sp, #80]
	stp	x24, x23, [sp, #96]
	stp	x22, x21, [sp, #112]
	stp	x20, x19, [sp, #128]
	.cfi_def_cfa w29, 96
	.cfi_offset w19, -8
	.cfi_offset w20, -16
	.cfi_offset w21, -24
	.cfi_offset w22, -32
	.cfi_offset w23, -40
	.cfi_offset w24, -48
	.cfi_offset w25, -56
	.cfi_offset w26, -64
	.cfi_offset w27, -72
	.cfi_offset w28, -80
	.cfi_offset w30, -88
	.cfi_offset w29, -96
.Ltmp2848:
	.loc	1 1353 29 prologue_end
	adrp	x8, global_ebc
	mov	x19, x4
.Ltmp2849:
	.loc	1 0 29 is_stmt 0
	mov	x20, x3
.Ltmp2850:
	mov	x21, x2
.Ltmp2851:
	mov	x22, x1
.Ltmp2852:
	.loc	1 1366 6 is_stmt 1
	cmp	w5, #3
	.loc	1 1353 29
	ldr	x8, [x8, :lo12:global_ebc]
.Ltmp2853:
	.loc	1 0 29 is_stmt 0
	stur	x0, [x29, #-8]
.Ltmp2854:
	.loc	1 1363 17 is_stmt 1
	ldp	w23, w25, [x8, #124]
	str	x8, [sp, #24]
.Ltmp2855:
	.loc	1 1363 27 is_stmt 0
	lsr	w24, w23, #3
.Ltmp2856:
	.loc	1 1366 6 is_stmt 1
	b.eq	.LBB21_3
.Ltmp2857:
	.loc	1 0 6 is_stmt 0
	add	x8, x19, #60
.Ltmp2858:
	.loc	1 1366 6
	cmp	w5, #2
	str	x8, [sp, #8]
.Ltmp2859:
	b.ne	.LBB21_4
.Ltmp2860:
	.loc	1 1368 19 is_stmt 1
	cmp	w25, #0
	mov	w27, wzr
	cinc	w8, w25, lt
	asr	w25, w8, #1
.Ltmp2861:
	.loc	1 0 19 is_stmt 0
	b	.LBB21_5
.Ltmp2862:
.LBB21_3:
	.loc	1 1370 14 is_stmt 1
	cmp	w25, #0
	cinc	w8, w25, lt
	asr	w27, w8, #1
.Ltmp2863:
	.loc	1 1371 19
	mul	w8, w27, w24
	.loc	1 1373 20
	mul	w9, w27, w23
	.loc	1 1371 14
	sbfiz	x8, x8, #3, #32
	add	x22, x22, x8
.Ltmp2864:
	.loc	1 1372 14
	add	x21, x21, x8
.Ltmp2865:
	.loc	1 1373 15
	add	x20, x20, x9
.Ltmp2866:
	.loc	1 1374 35
	add	x8, x19, #64
.Ltmp2867:
	.loc	1 0 35 is_stmt 0
	str	x8, [sp, #8]
.Ltmp2868:
	b	.LBB21_5
.Ltmp2869:
.LBB21_4:
	mov	w27, wzr
.Ltmp2870:
.LBB21_5:
	.loc	1 1379 59 is_stmt 1
	subs	w8, w25, w27
	.loc	1 1379 23 is_stmt 0
	mul	w9, w27, w23
	ldur	x10, [x29, #-8]
	.loc	1 1379 2
	mov	w1, wzr
	.loc	1 1379 64
	mul	w8, w8, w23
	.loc	1 1379 42
	lsr	w9, w9, #2
	.loc	1 1379 18
	add	x0, x10, x9
	.loc	1 1379 83
	lsr	w2, w8, #2
	.loc	1 1379 2
	bl	memset
.Ltmp2871:
	.loc	1 0 2
	mov	w8, wzr
	.loc	1 1379 59
	cmp	w25, w27
.Ltmp2872:
	.loc	1 1380 2 is_stmt 1
	b.le	.LBB21_19
.Ltmp2873:
	cmp	w24, #1
	mov	w8, wzr
	csinc	w9, w24, wzr, hi
	stur	w23, [x29, #-12]
	lsl	x24, x9, #3
.Ltmp2874:
	.loc	1 0 2 is_stmt 0
	str	x9, [sp, #16]
	b	.LBB21_9
.Ltmp2875:
.LBB21_7:
	.loc	1 1380 23
	add	x22, x22, x23
	add	x21, x21, x23
	add	x20, x20, x23
	ldur	w23, [x29, #-12]
.Ltmp2876:
.LBB21_8:
	add	w27, w27, #2
.Ltmp2877:
	.loc	1 1380 2
	cmp	w27, w25
	b.ge	.LBB21_19
.Ltmp2878:
.LBB21_9:
	.loc	1 1382 3 is_stmt 1
	cmp	w23, #8
	b.lo	.LBB21_8
.Ltmp2879:
	.loc	1 0 3 is_stmt 0
	ldp	x26, x9, [sp, #16]
	ldr	w9, [x9, #124]
.Ltmp2880:
	.loc	1 1382 3
	mul	w28, w9, w27
	ldur	x9, [x29, #-8]
.Ltmp2881:
	add	x23, x9, x28, lsr #2
	b	.LBB21_12
.Ltmp2882:
.LBB21_11:
	.loc	1 1389 14 is_stmt 1
	add	x21, x21, #8
.Ltmp2883:
	.loc	1 1390 14
	add	x22, x22, #8
.Ltmp2884:
	.loc	1 1391 16
	add	x20, x20, #8
.Ltmp2885:
	.loc	1 1382 17
	add	x23, x23, #4
	subs	x26, x26, #1
.Ltmp2886:
	.loc	1 1382 3 is_stmt 0
	b.eq	.LBB21_14
.Ltmp2887:
.LBB21_12:
	.loc	1 1383 15 is_stmt 1
	ldr	x9, [x22]
.Ltmp2888:
	.loc	1 1384 15
	ldr	x10, [x21]
.Ltmp2889:
	.loc	1 1385 8
	cmp	x9, x10
	b.eq	.LBB21_11
.Ltmp2890:
	.loc	1 1387 31
	mov	x0, x22
	mov	x1, x21
	mov	x2, x20
	mov	x3, x19
	mov	w4, wzr
	bl	get_one_auto_image2
.Ltmp2891:
	.loc	1 0 31 is_stmt 0
	mov	w8, #1
	.loc	1 1387 29
	str	w0, [x23]
	b	.LBB21_11
.Ltmp2892:
.LBB21_14:
	.loc	1 0 29
	ldur	w23, [x29, #-12]
.Ltmp2893:
	.loc	1 1393 3 is_stmt 1
	cmp	w23, #8
	b.lo	.LBB21_8
.Ltmp2894:
	.loc	1 0 3 is_stmt 0
	ldur	x9, [x29, #-8]
	mov	x23, xzr
	.loc	1 1393 3
	add	x26, x9, x28, lsr #2
	b	.LBB21_17
.Ltmp2895:
.LBB21_16:
	.loc	1 1393 17
	add	x26, x26, #4
	add	x23, x23, #8
.Ltmp2896:
	.loc	1 1393 3
	cmp	x24, x23
	b.eq	.LBB21_7
.Ltmp2897:
.LBB21_17:
	.loc	1 0 0
	add	x0, x22, x23
.Ltmp2898:
	add	x1, x21, x23
.Ltmp2899:
	.loc	1 1394 15 is_stmt 1
	ldr	x9, [x0]
.Ltmp2900:
	.loc	1 1395 15
	ldr	x10, [x1]
.Ltmp2901:
	.loc	1 1396 8
	cmp	x9, x10
	b.eq	.LBB21_16
.Ltmp2902:
	.loc	1 0 0 is_stmt 0
	add	x2, x20, x23
.Ltmp2903:
	.loc	1 1398 32 is_stmt 1
	mov	x3, x19
	mov	w4, #2
	bl	get_one_auto_image2
.Ltmp2904:
	.loc	1 1398 29 is_stmt 0
	ldr	w8, [x26]
	orr	w9, w8, w0
	mov	w8, #1
	str	w9, [x26]
	b	.LBB21_16
.Ltmp2905:
.LBB21_19:
	.loc	1 0 29
	ldr	x9, [sp, #8]
	.loc	1 1406 1 is_stmt 1
	ldp	x20, x19, [sp, #128]
.Ltmp2906:
	ldp	x22, x21, [sp, #112]
.Ltmp2907:
	.loc	1 1405 21
	str	w8, [x9]
	.loc	1 1406 1
	ldp	x24, x23, [sp, #96]
	ldp	x26, x25, [sp, #80]
.Ltmp2908:
	ldp	x28, x27, [sp, #64]
.Ltmp2909:
	ldp	x29, x30, [sp, #48]
	ldr	x30, [x18, #-8]!
	add	sp, sp, #144
.Ltmp2910:
	ret
.Ltmp2911:
.Lfunc_end21:
	.size	get_auto_image2, .Lfunc_end21-get_auto_image2
	.cfi_endproc

	.p2align	2
	.type	get_auto_image,@function
get_auto_image:
.Lfunc_begin22:
	.loc	1 1061 0
	.cfi_startproc
	stp	x26, x25, [sp, #-64]!
	stp	x24, x23, [sp, #16]
	stp	x22, x21, [sp, #32]
	stp	x20, x19, [sp, #48]
	.cfi_def_cfa_offset 64
	.cfi_offset w19, -8
	.cfi_offset w20, -16
	.cfi_offset w21, -24
	.cfi_offset w22, -32
	.cfi_offset w23, -40
	.cfi_offset w24, -48
	.cfi_offset w25, -56
	.cfi_offset w26, -64
.Ltmp2912:
	.loc	1 1062 29 prologue_end
	adrp	x8, global_ebc
	.loc	1 1081 6
	cmp	w5, #3
	.loc	1 1062 29
	ldr	x8, [x8, :lo12:global_ebc]
.Ltmp2913:
	.loc	1 1078 17
	ldp	w9, w10, [x8, #124]
.Ltmp2914:
	.loc	1 1078 27 is_stmt 0
	lsr	w15, w9, #3
.Ltmp2915:
	.loc	1 1081 6 is_stmt 1
	b.eq	.LBB22_3
.Ltmp2916:
	.loc	1 0 6 is_stmt 0
	add	x11, x4, #60
.Ltmp2917:
	.loc	1 1081 6
	cmp	w5, #2
	b.ne	.LBB22_6
.Ltmp2918:
	.loc	1 1083 19 is_stmt 1
	cmp	w10, #0
	mov	w12, wzr
	cinc	w10, w10, lt
.Ltmp2919:
	asr	w10, w10, #1
.Ltmp2920:
	.loc	1 1094 2
	cmp	w12, w10
	b.ge	.LBB22_4
	b	.LBB22_7
.Ltmp2921:
.LBB22_3:
	.loc	1 1085 14
	cmp	w10, #0
	cinc	w11, w10, lt
	asr	w12, w11, #1
.Ltmp2922:
	.loc	1 1086 19
	mul	w11, w12, w15
	.loc	1 1088 20
	mul	w13, w12, w9
	.loc	1 1086 14
	sbfiz	x11, x11, #3, #32
	add	x1, x1, x11
.Ltmp2923:
	.loc	1 1087 14
	add	x2, x2, x11
.Ltmp2924:
	.loc	1 1088 15
	add	x3, x3, x13
.Ltmp2925:
	.loc	1 1089 35
	add	x11, x4, #64
.Ltmp2926:
	.loc	1 1094 2
	cmp	w12, w10
	b.lt	.LBB22_7
.Ltmp2927:
.LBB22_4:
	.loc	1 0 2 is_stmt 0
	mov	w19, wzr
.Ltmp2928:
.LBB22_5:
	.loc	1 1227 21 is_stmt 1
	str	w19, [x11]
	.loc	1 1228 1
	ldp	x20, x19, [sp, #48]
	ldp	x22, x21, [sp, #32]
	ldp	x24, x23, [sp, #16]
	ldp	x26, x25, [sp], #64
	ret
.Ltmp2929:
.LBB22_6:
	.loc	1 0 1 is_stmt 0
	mov	w12, wzr
.Ltmp2930:
	.loc	1 1094 2 is_stmt 1
	cmp	w12, w10
	b.ge	.LBB22_4
.Ltmp2931:
.LBB22_7:
	cmp	w15, #1
	mov	w19, wzr
.Ltmp2932:
	.loc	1 0 0 is_stmt 0
	ldrb	w13, [x4, #56]
.Ltmp2933:
	.loc	1 1094 2
	csinc	w15, w15, wzr, hi
.Ltmp2934:
	.loc	1 0 0
	ldr	w14, [x8, #196]
.Ltmp2935:
	.loc	1 1094 2
	add	x16, x0, #1
	b	.LBB22_10
.Ltmp2936:
.LBB22_8:
	.loc	1 1094 22
	add	x3, x3, x17
	add	x1, x1, x17
	add	x2, x2, x17
.Ltmp2937:
.LBB22_9:
	add	w12, w12, #1
.Ltmp2938:
	.loc	1 1094 2
	cmp	w12, w10
	b.eq	.LBB22_5
.Ltmp2939:
.LBB22_10:
	.loc	1 1095 7 is_stmt 1
	cbz	w14, .LBB22_12
.Ltmp2940:
	.loc	1 1096 39
	ldp	w5, w17, [x8, #124]
.Ltmp2941:
	.loc	1 1096 54 is_stmt 0
	mvn	w0, w12
.Ltmp2942:
	add	w0, w17, w0
.Ltmp2943:
	.loc	1 1100 3 is_stmt 1
	cmp	w9, #8
	b.lo	.LBB22_9
	b	.LBB22_13
.Ltmp2944:
.LBB22_12:
	.loc	1 1098 42
	ldr	w0, [x8, #124]
.Ltmp2945:
	.loc	1 0 42 is_stmt 0
	mov	w5, w12
.Ltmp2946:
	.loc	1 1100 3 is_stmt 1
	cmp	w9, #8
	b.lo	.LBB22_9
.Ltmp2947:
.LBB22_13:
	.loc	1 0 0 is_stmt 0
	mul	w0, w0, w5
.Ltmp2948:
	mov	x17, xzr
	mov	w5, w15
	lsr	w0, w0, #2
.Ltmp2949:
	.loc	1 1100 3
	add	x0, x16, x0
	b	.LBB22_16
.Ltmp2950:
.LBB22_14:
	.loc	1 1219 21 is_stmt 1
	sturh	wzr, [x0, #-1]
.Ltmp2951:
.LBB22_15:
	.loc	1 1100 17
	add	x17, x17, #8
.Ltmp2952:
	add	x0, x0, #2
	subs	w5, w5, #1
.Ltmp2953:
	.loc	1 1100 3 is_stmt 0
	b.eq	.LBB22_8
.Ltmp2954:
.LBB22_16:
	.loc	1 1103 15 is_stmt 1
	ldr	x7, [x1, x17]
.Ltmp2955:
	.loc	1 1104 15
	ldr	x6, [x2, x17]
.Ltmp2956:
	.loc	1 1105 8
	cmp	x7, x6
	b.eq	.LBB22_14
.Ltmp2957:
	.loc	1 1107 24
	eor	x19, x6, x7
.Ltmp2958:
	.loc	1 1108 17
	tst	x19, #0xff
.Ltmp2959:
	.loc	1 1108 9 is_stmt 0
	b.eq	.LBB22_19
.Ltmp2960:
	.loc	1 1109 25 is_stmt 1
	ldrb	w21, [x3, x17]
.Ltmp2961:
	.loc	1 1111 38
	lsl	w22, w6, #2
	.loc	1 1110 20
	ldr	x20, [x4, #128]
	.loc	1 1111 43
	and	x22, x22, #0x3e0
	.loc	1 1111 52 is_stmt 0
	bfxil	x22, x7, #3, #5
	.loc	1 1114 10 is_stmt 1
	mov	x23, x6
	bfxil	x23, x7, #0, #8
	.loc	1 1110 19
	add	x20, x20, x21, lsl #10
.Ltmp2962:
	.loc	1 1113 22
	add	w24, w21, #1
.Ltmp2963:
	.loc	1 1114 10
	cmp	w13, w24, uxtb
	.loc	1 1111 19
	ldrb	w20, [x20, x22]
.Ltmp2964:
	.loc	1 1114 10
	csel	x6, x23, x6, eq
.Ltmp2965:
	csinc	w21, wzr, w21, eq
.Ltmp2966:
	.loc	1 1118 19
	strb	w21, [x3, x17]
	b	.LBB22_20
.Ltmp2967:
.LBB22_19:
	.loc	1 0 19 is_stmt 0
	mov	w20, wzr
.Ltmp2968:
.LBB22_20:
	.loc	1 1121 17 is_stmt 1
	add	x21, x3, x17
	tst	x19, #0xff00
.Ltmp2969:
	.loc	1 1121 9 is_stmt 0
	b.eq	.LBB22_22
.Ltmp2970:
	.loc	1 1122 25 is_stmt 1
	ldrb	w22, [x21, #1]
.Ltmp2971:
	.loc	1 1124 38
	lsr	x23, x6, #6
	.loc	1 1123 20
	ldr	x24, [x4, #128]
	.loc	1 1124 43
	and	x23, x23, #0x3e0
	.loc	1 1124 52 is_stmt 0
	bfxil	x23, x7, #11, #5
	.loc	1 1126 22 is_stmt 1
	add	w25, w22, #1
.Ltmp2972:
	.loc	1 1123 19
	add	x24, x24, x22, lsl #10
.Ltmp2973:
	.loc	1 1127 10
	cmp	w13, w25, uxtb
	mov	x25, x6
.Ltmp2974:
	csinc	w22, wzr, w22, eq
.Ltmp2975:
	.loc	1 1124 19
	ldrb	w23, [x24, x23]
.Ltmp2976:
	.loc	1 1127 10
	lsr	x24, x7, #8
.Ltmp2977:
	.loc	1 1131 19
	strb	w22, [x21, #1]
	.loc	1 1127 10
	bfi	x25, x24, #8, #8
	.loc	1 1125 16
	orr	w20, w20, w23, lsl #2
.Ltmp2978:
	.loc	1 1127 10
	csel	x6, x25, x6, eq
.Ltmp2979:
.LBB22_22:
	.loc	1 1134 17
	tst	x19, #0xff0000
.Ltmp2980:
	.loc	1 1134 9 is_stmt 0
	b.eq	.LBB22_24
.Ltmp2981:
	.loc	1 1135 25 is_stmt 1
	ldrb	w22, [x21, #2]
.Ltmp2982:
	.loc	1 1137 38
	lsr	x23, x6, #14
	.loc	1 1136 20
	ldr	x24, [x4, #128]
	.loc	1 1137 44
	and	x23, x23, #0x3e0
	.loc	1 1137 53 is_stmt 0
	bfxil	x23, x7, #19, #5
	.loc	1 1139 22 is_stmt 1
	add	w25, w22, #1
.Ltmp2983:
	.loc	1 1136 19
	add	x24, x24, x22, lsl #10
.Ltmp2984:
	.loc	1 1140 10
	cmp	w13, w25, uxtb
	mov	x25, x6
.Ltmp2985:
	csinc	w22, wzr, w22, eq
.Ltmp2986:
	.loc	1 1137 19
	ldrb	w23, [x24, x23]
.Ltmp2987:
	.loc	1 1140 10
	lsr	x24, x7, #16
.Ltmp2988:
	.loc	1 1144 19
	strb	w22, [x21, #2]
	.loc	1 1140 10
	bfi	x25, x24, #16, #8
	.loc	1 1138 16
	orr	w20, w20, w23, lsl #4
.Ltmp2989:
	.loc	1 1140 10
	csel	x6, x25, x6, eq
.Ltmp2990:
.LBB22_24:
	.loc	1 1147 17
	add	x21, x3, x17
	tst	x19, #0xff000000
.Ltmp2991:
	.loc	1 1147 9 is_stmt 0
	b.eq	.LBB22_26
.Ltmp2992:
	.loc	1 1148 25 is_stmt 1
	ldrb	w22, [x21, #3]
.Ltmp2993:
	.loc	1 1150 38
	lsr	x23, x6, #22
	.loc	1 1149 20
	ldr	x24, [x4, #128]
	.loc	1 1150 44
	and	x23, x23, #0x3e0
	.loc	1 1150 53 is_stmt 0
	bfxil	x23, x7, #27, #5
	.loc	1 1152 22 is_stmt 1
	add	w25, w22, #1
.Ltmp2994:
	.loc	1 1149 19
	add	x24, x24, x22, lsl #10
.Ltmp2995:
	.loc	1 1153 10
	cmp	w13, w25, uxtb
	mov	x25, x6
.Ltmp2996:
	csinc	w22, wzr, w22, eq
.Ltmp2997:
	.loc	1 1150 19
	ldrb	w23, [x24, x23]
.Ltmp2998:
	.loc	1 1153 10
	lsr	x24, x7, #24
.Ltmp2999:
	.loc	1 1157 19
	strb	w22, [x21, #3]
	.loc	1 1153 10
	bfi	x25, x24, #24, #8
	.loc	1 1151 16
	orr	w20, w20, w23, lsl #6
.Ltmp3000:
	.loc	1 1153 10
	csel	x6, x25, x6, eq
.Ltmp3001:
.LBB22_26:
	.loc	1 1163 17
	tst	x19, #0xff00000000
.Ltmp3002:
	.loc	1 1160 21
	sturb	w20, [x0, #-1]
.Ltmp3003:
	.loc	1 1163 9
	b.eq	.LBB22_28
.Ltmp3004:
	.loc	1 1164 25
	ldrb	w22, [x21, #4]
.Ltmp3005:
	.loc	1 1166 38
	lsr	x20, x6, #30
	.loc	1 1165 20
	ldr	x23, [x4, #128]
	.loc	1 1166 44
	and	x20, x20, #0x3e0
	.loc	1 1166 53 is_stmt 0
	bfxil	x20, x7, #35, #5
	.loc	1 1169 10 is_stmt 1
	lsr	x24, x7, #32
	mov	x25, x6
	.loc	1 1168 22
	add	w26, w22, #1
.Ltmp3006:
	.loc	1 1165 19
	add	x23, x23, x22, lsl #10
.Ltmp3007:
	.loc	1 1169 10
	cmp	w13, w26, uxtb
	bfi	x25, x24, #32, #8
	csinc	w22, wzr, w22, eq
.Ltmp3008:
	.loc	1 1166 19
	ldrb	w20, [x23, x20]
.Ltmp3009:
	.loc	1 1169 10
	csel	x6, x25, x6, eq
.Ltmp3010:
	.loc	1 1173 19
	strb	w22, [x21, #4]
	b	.LBB22_29
.Ltmp3011:
.LBB22_28:
	.loc	1 0 19 is_stmt 0
	mov	w20, wzr
.Ltmp3012:
.LBB22_29:
	.loc	1 1176 17 is_stmt 1
	add	x21, x3, x17
	tst	x19, #0xff0000000000
.Ltmp3013:
	.loc	1 1176 9 is_stmt 0
	b.eq	.LBB22_31
.Ltmp3014:
	.loc	1 1177 25 is_stmt 1
	ldrb	w22, [x21, #5]
.Ltmp3015:
	.loc	1 1179 38
	lsr	x23, x6, #38
	.loc	1 1178 20
	ldr	x24, [x4, #128]
	.loc	1 1179 44
	and	x23, x23, #0x3e0
	.loc	1 1179 53 is_stmt 0
	bfxil	x23, x7, #43, #5
	.loc	1 1181 22 is_stmt 1
	add	w25, w22, #1
.Ltmp3016:
	.loc	1 1178 19
	add	x24, x24, x22, lsl #10
.Ltmp3017:
	.loc	1 1182 10
	cmp	w13, w25, uxtb
	mov	x25, x6
.Ltmp3018:
	csinc	w22, wzr, w22, eq
.Ltmp3019:
	.loc	1 1179 19
	ldrb	w23, [x24, x23]
.Ltmp3020:
	.loc	1 1182 10
	lsr	x24, x7, #40
.Ltmp3021:
	.loc	1 1186 19
	strb	w22, [x21, #5]
	.loc	1 1182 10
	bfi	x25, x24, #40, #8
	.loc	1 1180 16
	orr	w20, w20, w23, lsl #2
.Ltmp3022:
	.loc	1 1182 10
	csel	x6, x25, x6, eq
.Ltmp3023:
.LBB22_31:
	.loc	1 1189 17
	tst	x19, #0xff000000000000
.Ltmp3024:
	.loc	1 1189 9 is_stmt 0
	b.eq	.LBB22_33
.Ltmp3025:
	.loc	1 1190 25 is_stmt 1
	ldrb	w22, [x21, #6]
.Ltmp3026:
	.loc	1 1192 38
	lsr	x23, x6, #46
	.loc	1 1191 20
	ldr	x24, [x4, #128]
	.loc	1 1192 44
	and	x23, x23, #0x3e0
	.loc	1 1192 53 is_stmt 0
	bfxil	x23, x7, #51, #5
	.loc	1 1194 22 is_stmt 1
	add	w25, w22, #1
.Ltmp3027:
	.loc	1 1191 19
	add	x24, x24, x22, lsl #10
.Ltmp3028:
	.loc	1 1195 10
	cmp	w13, w25, uxtb
	mov	x25, x6
.Ltmp3029:
	csinc	w22, wzr, w22, eq
.Ltmp3030:
	.loc	1 1192 19
	ldrb	w23, [x24, x23]
.Ltmp3031:
	.loc	1 1195 10
	lsr	x24, x7, #48
.Ltmp3032:
	.loc	1 1199 19
	strb	w22, [x21, #6]
	.loc	1 1195 10
	bfi	x25, x24, #48, #8
	.loc	1 1193 16
	orr	w20, w20, w23, lsl #4
.Ltmp3033:
	.loc	1 1195 10
	csel	x6, x25, x6, eq
.Ltmp3034:
.LBB22_33:
	.loc	1 1202 9
	lsr	x19, x19, #56
.Ltmp3035:
	cbz	x19, .LBB22_35
.Ltmp3036:
	.loc	1 0 0 is_stmt 0
	add	x19, x3, x17
.Ltmp3037:
	.loc	1 1204 20 is_stmt 1
	ldr	x22, [x4, #128]
	.loc	1 1205 38
	lsr	x23, x6, #54
	.loc	1 1205 44 is_stmt 0
	and	x23, x23, #0x3e0
	.loc	1 1203 25 is_stmt 1
	ldrb	w21, [x19, #7]
.Ltmp3038:
	.loc	1 1205 53
	bfxil	x23, x7, #59, #5
	.loc	1 1208 10
	bfxil	x7, x6, #0, #56
.Ltmp3039:
	.loc	1 1204 19
	add	x22, x22, x21, lsl #10
.Ltmp3040:
	.loc	1 1205 19
	ldrb	w22, [x22, x23]
.Ltmp3041:
	.loc	1 1207 22
	add	w23, w21, #1
.Ltmp3042:
	.loc	1 1208 10
	cmp	w13, w23, uxtb
	csinc	w21, wzr, w21, eq
.Ltmp3043:
	csel	x6, x7, x6, eq
.Ltmp3044:
	.loc	1 1206 16
	orr	w20, w20, w22, lsl #6
.Ltmp3045:
	.loc	1 1212 19
	strb	w21, [x19, #7]
.Ltmp3046:
.LBB22_35:
	.loc	1 0 19 is_stmt 0
	mov	w19, #1
	.loc	1 1215 17 is_stmt 1
	str	x6, [x2, x17]
.Ltmp3047:
	.loc	1 1216 21
	strb	w20, [x0]
	b	.LBB22_15
.Ltmp3048:
.Lfunc_end22:
	.size	get_auto_image, .Lfunc_end22-get_auto_image
	.cfi_endproc

	.p2align	2
	.type	direct_mode_data_change_part2,@function
direct_mode_data_change_part2:
.Lfunc_begin23:
	.loc	1 1539 0
	.cfi_startproc
	sub	sp, sp, #112
	str	x30, [x18], #8
	.cfi_escape 0x16, 0x12, 0x02, 0x82, 0x78
	stp	x29, x30, [sp, #16]
	add	x29, sp, #16
	stp	x28, x27, [sp, #32]
	stp	x26, x25, [sp, #48]
	stp	x24, x23, [sp, #64]
	stp	x22, x21, [sp, #80]
	stp	x20, x19, [sp, #96]
	.cfi_def_cfa w29, 96
	.cfi_offset w19, -8
	.cfi_offset w20, -16
	.cfi_offset w21, -24
	.cfi_offset w22, -32
	.cfi_offset w23, -40
	.cfi_offset w24, -48
	.cfi_offset w25, -56
	.cfi_offset w26, -64
	.cfi_offset w27, -72
	.cfi_offset w28, -80
	.cfi_offset w30, -88
	.cfi_offset w29, -96
.Ltmp3049:
	.loc	1 1540 29 prologue_end
	adrp	x8, global_ebc
	mov	x19, x2
.Ltmp3050:
	.loc	1 0 29 is_stmt 0
	mov	x20, x1
.Ltmp3051:
	.loc	1 1552 6 is_stmt 1
	cmp	w4, #3
	str	x0, [sp, #8]
.Ltmp3052:
	.loc	1 1540 29
	ldr	x8, [x8, :lo12:global_ebc]
.Ltmp3053:
	.loc	1 1549 17
	ldp	w22, w23, [x8, #124]
.Ltmp3054:
	.loc	1 1549 27 is_stmt 0
	lsr	w9, w22, #3
.Ltmp3055:
	.loc	1 0 27
	str	w9, [sp, #4]
	.loc	1 1552 6 is_stmt 1
	b.eq	.LBB23_3
.Ltmp3056:
	cmp	w4, #2
	b.ne	.LBB23_4
.Ltmp3057:
	.loc	1 1554 19
	cmp	w23, #0
	mov	w24, wzr
	cinc	w8, w23, lt
.Ltmp3058:
	asr	w23, w8, #1
.Ltmp3059:
	.loc	1 0 19 is_stmt 0
	b	.LBB23_5
.Ltmp3060:
.LBB23_3:
	.loc	1 1556 14 is_stmt 1
	cmp	w23, #0
	cinc	w8, w23, lt
.Ltmp3061:
	asr	w24, w8, #1
.Ltmp3062:
	.loc	1 1557 19
	mul	w8, w24, w9
	.loc	1 1557 14 is_stmt 0
	sbfiz	x8, x8, #3, #32
	add	x20, x20, x8
.Ltmp3063:
	.loc	1 1558 14 is_stmt 1
	add	x19, x19, x8
.Ltmp3064:
	.loc	1 0 14 is_stmt 0
	b	.LBB23_5
.Ltmp3065:
.LBB23_4:
	mov	w24, wzr
.Ltmp3066:
.LBB23_5:
	.loc	1 1563 31 is_stmt 1
	lsr	w27, w22, #2
.Ltmp3067:
	.loc	1 1564 58
	subs	w8, w23, w24
	ldr	x9, [sp, #8]
.Ltmp3068:
	.loc	1 1564 2 is_stmt 0
	mov	w1, wzr
	.loc	1 1564 22
	mul	w25, w24, w27
	.loc	1 0 0
	ldrb	w26, [x3, #56]
	.loc	1 1564 48
	mul	w8, w8, w27
	.loc	1 0 0
	ldr	w21, [x3, #72]
.Ltmp3069:
	ldr	x28, [x3, #128]
.Ltmp3070:
	.loc	1 1564 18
	add	x0, x9, w25, sxtw
	.loc	1 1564 38
	sxtw	x2, w8
	.loc	1 1564 2
	bl	memset
.Ltmp3071:
	.loc	1 1564 58
	cmp	w23, w24
.Ltmp3072:
	.loc	1 1565 2 is_stmt 1
	b.le	.LBB23_25
.Ltmp3073:
	.loc	1 0 2 is_stmt 0
	ldr	w9, [sp, #4]
	sub	w8, w26, w21
.Ltmp3074:
	lsl	w11, w8, #10
.Ltmp3075:
	.loc	1 1565 2
	lsl	w8, w27, #1
.Ltmp3076:
	.loc	1 0 2
	mov	w12, #12
	mov	w13, #3
	.loc	1 1565 2
	cmp	w9, #1
.Ltmp3077:
	.loc	1 0 0
	add	x11, x28, w11, sxtw
.Ltmp3078:
	.loc	1 1565 2
	csinc	w9, w9, wzr, hi
	lsl	x10, x9, #3
	b	.LBB23_9
.Ltmp3079:
.LBB23_7:
	.loc	1 1565 23
	add	x20, x20, x15
	add	x19, x19, x15
.Ltmp3080:
.LBB23_8:
	add	w24, w24, #2
.Ltmp3081:
	.loc	1 1565 2
	add	w25, w25, w8
	cmp	w24, w23
	b.ge	.LBB23_25
.Ltmp3082:
.LBB23_9:
	.loc	1 1567 3 is_stmt 1
	cmp	w22, #8
	b.lo	.LBB23_8
.Ltmp3083:
	.loc	1 0 3 is_stmt 0
	ldr	x14, [sp, #8]
	mov	x15, x9
	add	x14, x14, w25, sxtw
	mov	x16, x14
	b	.LBB23_14
.Ltmp3084:
.LBB23_11:
	.loc	1 342 6 is_stmt 1
	tst	x0, #0xff
.Ltmp3085:
	.loc	1 285 25
	lsr	x7, x1, #22
.Ltmp3086:
	.loc	1 342 6
	csel	w3, wzr, w13, eq
.Ltmp3087:
	.loc	1 344 6
	tst	x0, #0xff00
	orr	w4, w3, #0x30
.Ltmp3088:
	.loc	1 285 31
	and	x7, x7, #0x3e0
.Ltmp3089:
	.loc	1 344 6
	csel	w3, w3, w4, eq
.Ltmp3090:
	.loc	1 346 6
	tst	x0, #0xff0000
	orr	w4, w3, #0x300
.Ltmp3091:
	.loc	1 282 32
	lsl	w2, w1, #2
.Ltmp3092:
	.loc	1 346 6
	csel	w3, w3, w4, eq
.Ltmp3093:
	.loc	1 348 6
	tst	x0, #0xff000000
	orr	w4, w3, #0x3000
.Ltmp3094:
	.loc	1 283 25
	lsr	x5, x1, #6
.Ltmp3095:
	.loc	1 348 6
	csel	w3, w3, w4, eq
.Ltmp3096:
	.loc	1 350 6
	tst	x0, #0xff00000000
	orr	w4, w3, #0x30000
.Ltmp3097:
	.loc	1 285 40
	bfxil	x7, x17, #27, #5
.Ltmp3098:
	.loc	1 350 6
	csel	w3, w3, w4, eq
.Ltmp3099:
	.loc	1 352 6
	tst	x0, #0xff0000000000
	orr	w4, w3, #0x300000
.Ltmp3100:
	.loc	1 282 37
	and	x2, x2, #0x3e0
	.loc	1 283 30
	and	x5, x5, #0x3e0
	.loc	1 284 25
	lsr	x6, x1, #14
.Ltmp3101:
	.loc	1 352 6
	csel	w3, w3, w4, eq
.Ltmp3102:
	.loc	1 282 46
	bfxil	x2, x17, #3, #5
	.loc	1 283 39
	bfxil	x5, x17, #11, #5
	.loc	1 284 31
	and	x4, x6, #0x3e0
.Ltmp3103:
	.loc	1 354 6
	orr	w6, w3, #0x3000000
	tst	x0, #0xff000000000000
.Ltmp3104:
	.loc	1 284 40
	bfxil	x4, x17, #19, #5
.Ltmp3105:
	.loc	1 354 6
	csel	w3, w3, w6, eq
.Ltmp3106:
	.loc	1 285 6
	ldrb	w6, [x11, x7]
	.loc	1 286 25
	lsr	x7, x1, #30
	.loc	1 286 31 is_stmt 0
	and	x7, x7, #0x3e0
	.loc	1 287 25 is_stmt 1
	lsr	x21, x1, #38
	.loc	1 282 13
	ldrb	w2, [x11, x2]
	.loc	1 286 40
	bfxil	x7, x17, #35, #5
	.loc	1 283 6
	ldrb	w5, [x11, x5]
	.loc	1 287 31
	and	x21, x21, #0x3e0
	.loc	1 288 25
	lsr	x26, x1, #46
	.loc	1 284 6
	ldrb	w4, [x11, x4]
	.loc	1 287 40
	bfxil	x21, x17, #43, #5
	.loc	1 288 31
	and	x26, x26, #0x3e0
	.loc	1 289 25
	lsr	x1, x1, #54
.Ltmp3107:
	.loc	1 288 40
	bfxil	x26, x17, #51, #5
	.loc	1 289 31
	and	x1, x1, #0x3e0
	.loc	1 283 4
	orr	w2, w2, w5, lsl #4
	.loc	1 289 40
	bfxil	x1, x17, #59, #5
	.loc	1 286 6
	ldrb	w17, [x11, x7]
.Ltmp3108:
	.loc	1 287 6
	ldrb	w5, [x11, x21]
	.loc	1 284 4
	orr	w2, w2, w4, lsl #8
	.loc	1 288 6
	ldrb	w4, [x11, x26]
	.loc	1 285 4
	orr	w2, w2, w6, lsl #12
	.loc	1 289 6
	ldrb	w1, [x11, x1]
.Ltmp3109:
	.loc	1 356 6
	lsr	x0, x0, #56
.Ltmp3110:
	.loc	1 286 4
	orr	w17, w2, w17, lsl #16
.Ltmp3111:
	.loc	1 356 6
	cmp	x0, #0
.Ltmp3112:
	.loc	1 287 4
	orr	w17, w17, w5, lsl #20
.Ltmp3113:
	.loc	1 356 6
	orr	w0, w3, #0x30000000
.Ltmp3114:
	.loc	1 288 4
	orr	w17, w17, w4, lsl #24
.Ltmp3115:
	.loc	1 356 6
	csel	w0, w3, w0, eq
.Ltmp3116:
	.loc	1 289 4
	orr	w17, w17, w1, lsl #28
.Ltmp3117:
	.loc	1 359 10
	and	w17, w17, w0
.Ltmp3118:
.LBB23_12:
	.loc	1 1571 29
	str	w17, [x16]
.Ltmp3119:
.LBB23_13:
	.loc	1 1567 17
	add	x16, x16, #4
	subs	x15, x15, #1
.Ltmp3120:
	.loc	1 1567 3 is_stmt 0
	b.eq	.LBB23_17
.Ltmp3121:
.LBB23_14:
	.loc	1 1568 15 is_stmt 1
	ldr	x17, [x20], #8
.Ltmp3122:
	.loc	1 1569 15
	ldr	x1, [x19], #8
.Ltmp3123:
	.loc	1 1570 8
	cmp	x17, x1
	b.eq	.LBB23_13
.Ltmp3124:
	.loc	1 337 25
	eor	x0, x1, x17
.Ltmp3125:
	.loc	1 339 6
	cbnz	x0, .LBB23_11
.Ltmp3126:
	.loc	1 0 6 is_stmt 0
	mov	w17, wzr
.Ltmp3127:
	b	.LBB23_12
.Ltmp3128:
.LBB23_17:
	.loc	1 1574 3 is_stmt 1
	cmp	w22, #8
	b.lo	.LBB23_8
.Ltmp3129:
	.loc	1 0 3 is_stmt 0
	mov	x15, xzr
	b	.LBB23_22
.Ltmp3130:
.LBB23_19:
	.loc	1 372 6 is_stmt 1
	tst	x17, #0xff
.Ltmp3131:
	.loc	1 295 25
	lsr	x2, x0, #6
.Ltmp3132:
	.loc	1 372 6
	csel	w3, wzr, w12, eq
.Ltmp3133:
	.loc	1 374 6
	tst	x17, #0xff00
	orr	w4, w3, #0xc0
.Ltmp3134:
	.loc	1 294 32
	lsl	w1, w0, #2
.Ltmp3135:
	.loc	1 374 6
	csel	w3, w3, w4, eq
.Ltmp3136:
	.loc	1 376 6
	tst	x17, #0xff0000
	orr	w4, w3, #0xc00
.Ltmp3137:
	.loc	1 295 30
	and	x2, x2, #0x3e0
.Ltmp3138:
	.loc	1 376 6
	csel	w3, w3, w4, eq
.Ltmp3139:
	.loc	1 378 6
	tst	x17, #0xff000000
	orr	w4, w3, #0xc000
.Ltmp3140:
	.loc	1 296 25
	lsr	x5, x0, #14
.Ltmp3141:
	.loc	1 378 6
	csel	w3, w3, w4, eq
.Ltmp3142:
	.loc	1 380 6
	tst	x17, #0xff00000000
	orr	w4, w3, #0xc0000
.Ltmp3143:
	.loc	1 294 37
	and	x1, x1, #0x3e0
.Ltmp3144:
	.loc	1 380 6
	csel	w3, w3, w4, eq
.Ltmp3145:
	.loc	1 382 6
	tst	x17, #0xff0000000000
	orr	w4, w3, #0xc00000
.Ltmp3146:
	.loc	1 295 39
	bfxil	x2, x16, #11, #5
.Ltmp3147:
	.loc	1 382 6
	csel	w3, w3, w4, eq
.Ltmp3148:
	.loc	1 384 6
	tst	x17, #0xff000000000000
	orr	w4, w3, #0xc000000
.Ltmp3149:
	.loc	1 296 31
	and	x5, x5, #0x3e0
	.loc	1 294 46
	bfxil	x1, x16, #3, #5
.Ltmp3150:
	.loc	1 384 6
	csel	w3, w3, w4, eq
.Ltmp3151:
	.loc	1 297 25
	lsr	x4, x0, #22
	.loc	1 296 40
	bfxil	x5, x16, #19, #5
	.loc	1 297 31
	and	x4, x4, #0x3e0
	.loc	1 298 25
	lsr	x6, x0, #30
	.loc	1 295 6
	ldrb	w2, [x11, x2]
	.loc	1 297 40
	bfxil	x4, x16, #27, #5
	.loc	1 298 31
	and	x6, x6, #0x3e0
	.loc	1 299 25
	lsr	x7, x0, #38
	.loc	1 294 13
	ldrb	w1, [x11, x1]
	.loc	1 298 40
	bfxil	x6, x16, #35, #5
	.loc	1 299 31
	and	x7, x7, #0x3e0
	.loc	1 300 25
	lsr	x21, x0, #46
	.loc	1 301 25
	lsr	x0, x0, #54
.Ltmp3152:
	.loc	1 296 6
	ldrb	w5, [x11, x5]
	.loc	1 299 40
	bfxil	x7, x16, #43, #5
	.loc	1 300 31
	and	x21, x21, #0x3e0
	.loc	1 301 31
	and	x0, x0, #0x3e0
	.loc	1 300 40
	bfxil	x21, x16, #51, #5
	.loc	1 301 40
	bfxil	x0, x16, #59, #5
	.loc	1 297 6
	ldrb	w16, [x11, x4]
.Ltmp3153:
	.loc	1 295 66
	lsl	w2, w2, #6
	.loc	1 298 6
	ldrb	w4, [x11, x6]
	.loc	1 295 4
	orr	w1, w2, w1, lsl #2
	.loc	1 299 6
	ldrb	w2, [x11, x7]
	.loc	1 296 4
	orr	w1, w1, w5, lsl #10
	.loc	1 300 6
	ldrb	w5, [x11, x21]
	.loc	1 297 4
	orr	w16, w1, w16, lsl #14
	.loc	1 301 6
	ldrb	w0, [x11, x0]
	.loc	1 298 4
	orr	w16, w16, w4, lsl #18
.Ltmp3154:
	.loc	1 386 6
	lsr	x17, x17, #56
.Ltmp3155:
	.loc	1 299 4
	orr	w16, w16, w2, lsl #22
.Ltmp3156:
	.loc	1 386 6
	cmp	x17, #0
	orr	w17, w3, #0xc0000000
.Ltmp3157:
	.loc	1 300 4
	orr	w16, w16, w5, lsl #26
.Ltmp3158:
	.loc	1 386 6
	csel	w17, w3, w17, eq
.Ltmp3159:
	.loc	1 301 4
	orr	w16, w16, w0, lsl #30
.Ltmp3160:
	.loc	1 389 10
	and	w16, w16, w17
.Ltmp3161:
.LBB23_20:
	.loc	1 1578 29
	ldr	w17, [x14]
	orr	w16, w17, w16
	str	w16, [x14]
.Ltmp3162:
.LBB23_21:
	.loc	1 1574 17
	add	x14, x14, #4
	add	x15, x15, #8
.Ltmp3163:
	.loc	1 1574 3 is_stmt 0
	cmp	x10, x15
	b.eq	.LBB23_7
.Ltmp3164:
.LBB23_22:
	.loc	1 1575 15 is_stmt 1
	ldr	x16, [x20, x15]
.Ltmp3165:
	.loc	1 1576 15
	ldr	x0, [x19, x15]
.Ltmp3166:
	.loc	1 1577 8
	cmp	x16, x0
	b.eq	.LBB23_21
.Ltmp3167:
	.loc	1 367 25
	eor	x17, x0, x16
.Ltmp3168:
	.loc	1 369 6
	cbnz	x17, .LBB23_19
.Ltmp3169:
	.loc	1 0 6 is_stmt 0
	mov	w16, wzr
.Ltmp3170:
	b	.LBB23_20
.Ltmp3171:
.LBB23_25:
	.loc	1 1582 1 is_stmt 1
	ldp	x20, x19, [sp, #96]
.Ltmp3172:
	ldp	x22, x21, [sp, #80]
	ldp	x24, x23, [sp, #64]
.Ltmp3173:
	ldp	x26, x25, [sp, #48]
	ldp	x28, x27, [sp, #32]
.Ltmp3174:
	ldp	x29, x30, [sp, #16]
	ldr	x30, [x18, #-8]!
	add	sp, sp, #112
.Ltmp3175:
	ret
.Ltmp3176:
.Lfunc_end23:
	.size	direct_mode_data_change_part2, .Lfunc_end23-direct_mode_data_change_part2
	.cfi_endproc

	.p2align	2
	.type	direct_mode_data_change_part,@function
direct_mode_data_change_part:
.Lfunc_begin24:
	.loc	1 1451 0
	.cfi_startproc
	sub	sp, sp, #112
	str	x30, [x18], #8
	.cfi_escape 0x16, 0x12, 0x02, 0x82, 0x78
	stp	x29, x30, [sp, #16]
	add	x29, sp, #16
	stp	x28, x27, [sp, #32]
	stp	x26, x25, [sp, #48]
	stp	x24, x23, [sp, #64]
	stp	x22, x21, [sp, #80]
	stp	x20, x19, [sp, #96]
	.cfi_def_cfa w29, 96
	.cfi_offset w19, -8
	.cfi_offset w20, -16
	.cfi_offset w21, -24
	.cfi_offset w22, -32
	.cfi_offset w23, -40
	.cfi_offset w24, -48
	.cfi_offset w25, -56
	.cfi_offset w26, -64
	.cfi_offset w27, -72
	.cfi_offset w28, -80
	.cfi_offset w30, -88
	.cfi_offset w29, -96
.Ltmp3177:
	.loc	1 1452 29 prologue_end
	adrp	x8, global_ebc
	mov	x19, x2
.Ltmp3178:
	.loc	1 0 29 is_stmt 0
	mov	x20, x1
.Ltmp3179:
	mov	x21, x0
.Ltmp3180:
	.loc	1 1463 6 is_stmt 1
	cmp	w4, #3
	.loc	1 1452 29
	ldr	x26, [x8, :lo12:global_ebc]
.Ltmp3181:
	.loc	1 1460 17
	ldp	w22, w8, [x26, #124]
.Ltmp3182:
	.loc	1 1460 27 is_stmt 0
	lsr	w10, w22, #3
.Ltmp3183:
	.loc	1 0 27
	stur	w10, [x29, #-4]
	.loc	1 1463 6 is_stmt 1
	b.eq	.LBB24_3
.Ltmp3184:
	cmp	w4, #2
	b.ne	.LBB24_4
.Ltmp3185:
	.loc	1 1465 19
	cmp	w8, #0
	mov	w23, wzr
	cinc	w9, w8, lt
	asr	w24, w9, #1
.Ltmp3186:
	.loc	1 0 19 is_stmt 0
	b	.LBB24_6
.Ltmp3187:
.LBB24_3:
	.loc	1 1467 14 is_stmt 1
	cmp	w8, #0
	cinc	w9, w8, lt
	asr	w23, w9, #1
.Ltmp3188:
	.loc	1 1468 19
	mul	w9, w23, w10
	.loc	1 1468 14 is_stmt 0
	sbfiz	x9, x9, #3, #32
	add	x20, x20, x9
.Ltmp3189:
	.loc	1 1469 14 is_stmt 1
	add	x19, x19, x9
.Ltmp3190:
	.loc	1 0 14 is_stmt 0
	b	.LBB24_5
.Ltmp3191:
.LBB24_4:
	mov	w23, wzr
.Ltmp3192:
.LBB24_5:
	mov	w24, w8
.Ltmp3193:
.LBB24_6:
	ldrb	w28, [x3, #56]
	.loc	1 1474 31 is_stmt 1
	lsr	w25, w22, #2
.Ltmp3194:
	.loc	1 0 0 is_stmt 0
	ldr	w27, [x3, #72]
.Ltmp3195:
	.loc	1 1475 13 is_stmt 1
	ldr	w9, [x26, #196]
.Ltmp3196:
	.loc	1 0 0 is_stmt 0
	ldr	x10, [x3, #128]
.Ltmp3197:
	str	x10, [sp]
	.loc	1 1475 6
	cbz	w9, .LBB24_8
.Ltmp3198:
	.loc	1 1476 41 is_stmt 1
	sub	w8, w8, w24
	.loc	1 1476 88 is_stmt 0
	sub	w9, w24, w23
	.loc	1 1476 3
	mov	w1, wzr
	.loc	1 1476 51
	mul	w8, w8, w25
	.loc	1 1476 78
	mul	w9, w9, w25
	.loc	1 1476 19
	add	x0, x21, x8
	.loc	1 1476 68
	sxtw	x2, w9
	.loc	1 1476 3
	bl	memset
.Ltmp3199:
	.loc	1 1477 23 is_stmt 1
	ldr	w8, [x26, #128]
	.loc	1 1477 38 is_stmt 0
	mvn	w9, w23
	add	w8, w8, w9
	.loc	1 1477 43
	mul	w8, w8, w25
	.loc	1 1478 17 is_stmt 1
	neg	w25, w25
.Ltmp3200:
	.loc	1 1477 12
	add	x21, x21, x8
.Ltmp3201:
	.loc	1 1484 2
	cmp	w24, w23
	b.gt	.LBB24_9
	b	.LBB24_19
.Ltmp3202:
.LBB24_8:
	.loc	1 1481 43
	sub	w8, w24, w23
	.loc	1 1480 17
	mul	w9, w23, w25
	.loc	1 1481 3
	mov	w1, wzr
	.loc	1 1481 33 is_stmt 0
	mul	w8, w8, w25
	.loc	1 1480 12 is_stmt 1
	add	x21, x21, w9, sxtw
.Ltmp3203:
	.loc	1 1481 23
	sxtw	x2, w8
	.loc	1 1481 3 is_stmt 0
	mov	x0, x21
	bl	memset
.Ltmp3204:
	.loc	1 1484 2 is_stmt 1
	cmp	w24, w23
	b.le	.LBB24_19
.Ltmp3205:
.LBB24_9:
	.loc	1 0 2 is_stmt 0
	ldur	w10, [x29, #-4]
	sub	w8, w28, w27
.Ltmp3206:
	ldr	x11, [sp]
	lsl	w9, w8, #10
	sxtw	x8, w25
.Ltmp3207:
	.loc	1 1484 2
	cmp	w10, #1
	csinc	w10, w10, wzr, hi
	add	x9, x11, w9, sxtw
.Ltmp3208:
	lsl	x10, x10, #1
	mov	w11, #3
	b	.LBB24_11
.Ltmp3209:
.LBB24_10:
	.loc	1 1484 22
	add	w23, w23, #1
.Ltmp3210:
	.loc	1 1484 35
	add	x21, x21, x8
.Ltmp3211:
	.loc	1 1484 2
	cmp	w23, w24
	b.eq	.LBB24_19
.Ltmp3212:
.LBB24_11:
	.loc	1 1485 3 is_stmt 1
	cmp	w22, #8
	b.lo	.LBB24_10
.Ltmp3213:
	.loc	1 0 3 is_stmt 0
	mov	x12, xzr
	b	.LBB24_16
.Ltmp3214:
.LBB24_13:
	.loc	1 312 6 is_stmt 1
	tst	x14, #0xff
.Ltmp3215:
	.loc	1 273 25
	lsr	x3, x15, #22
.Ltmp3216:
	.loc	1 312 6
	csel	w17, wzr, w11, eq
.Ltmp3217:
	.loc	1 314 6
	tst	x14, #0xff00
	orr	w0, w17, #0xc
.Ltmp3218:
	.loc	1 273 31
	and	x3, x3, #0x3e0
.Ltmp3219:
	.loc	1 314 6
	csel	w17, w17, w0, eq
.Ltmp3220:
	.loc	1 316 6
	tst	x14, #0xff0000
	orr	w0, w17, #0x30
.Ltmp3221:
	.loc	1 270 32
	lsl	w16, w15, #2
.Ltmp3222:
	.loc	1 316 6
	csel	w17, w17, w0, eq
.Ltmp3223:
	.loc	1 318 6
	tst	x14, #0xff000000
	orr	w0, w17, #0xc0
.Ltmp3224:
	.loc	1 271 25
	lsr	x1, x15, #6
.Ltmp3225:
	.loc	1 318 6
	csel	w17, w17, w0, eq
.Ltmp3226:
	.loc	1 320 6
	tst	x14, #0xff00000000
	orr	w0, w17, #0x300
.Ltmp3227:
	.loc	1 273 40
	bfxil	x3, x13, #27, #5
.Ltmp3228:
	.loc	1 320 6
	csel	w17, w17, w0, eq
.Ltmp3229:
	.loc	1 322 6
	tst	x14, #0xff0000000000
	orr	w0, w17, #0xc00
.Ltmp3230:
	.loc	1 270 37
	and	x16, x16, #0x3e0
	.loc	1 271 30
	and	x1, x1, #0x3e0
	.loc	1 272 25
	lsr	x2, x15, #14
.Ltmp3231:
	.loc	1 322 6
	csel	w17, w17, w0, eq
.Ltmp3232:
	.loc	1 270 46
	bfxil	x16, x13, #3, #5
	.loc	1 271 39
	bfxil	x1, x13, #11, #5
	.loc	1 272 31
	and	x0, x2, #0x3e0
.Ltmp3233:
	.loc	1 324 6
	orr	w2, w17, #0x3000
	tst	x14, #0xff000000000000
.Ltmp3234:
	.loc	1 272 40
	bfxil	x0, x13, #19, #5
.Ltmp3235:
	.loc	1 324 6
	csel	w17, w17, w2, eq
.Ltmp3236:
	.loc	1 273 6
	ldrb	w2, [x9, x3]
	.loc	1 274 25
	lsr	x3, x15, #30
	.loc	1 274 31 is_stmt 0
	and	x3, x3, #0x3e0
	.loc	1 275 25 is_stmt 1
	lsr	x4, x15, #38
	.loc	1 270 13
	ldrb	w16, [x9, x16]
	.loc	1 274 40
	bfxil	x3, x13, #35, #5
	.loc	1 271 6
	ldrb	w1, [x9, x1]
	.loc	1 275 31
	and	x4, x4, #0x3e0
	.loc	1 276 25
	lsr	x5, x15, #46
	.loc	1 272 6
	ldrb	w0, [x9, x0]
	.loc	1 275 40
	bfxil	x4, x13, #43, #5
	.loc	1 276 31
	and	x5, x5, #0x3e0
	.loc	1 277 25
	lsr	x15, x15, #54
.Ltmp3237:
	.loc	1 276 40
	bfxil	x5, x13, #51, #5
	.loc	1 277 31
	and	x15, x15, #0x3e0
	.loc	1 271 4
	orr	w16, w16, w1, lsl #2
	.loc	1 277 40
	bfxil	x15, x13, #59, #5
	.loc	1 274 6
	ldrb	w13, [x9, x3]
.Ltmp3238:
	.loc	1 275 6
	ldrb	w1, [x9, x4]
	.loc	1 272 4
	orr	w16, w16, w0, lsl #4
	.loc	1 276 6
	ldrb	w0, [x9, x5]
	.loc	1 273 4
	orr	w16, w16, w2, lsl #6
	.loc	1 277 6
	ldrb	w15, [x9, x15]
.Ltmp3239:
	.loc	1 326 14
	lsr	x14, x14, #56
.Ltmp3240:
	.loc	1 274 4
	orr	w13, w16, w13, lsl #8
.Ltmp3241:
	.loc	1 326 6
	cmp	x14, #0
.Ltmp3242:
	.loc	1 275 4
	orr	w13, w13, w1, lsl #10
.Ltmp3243:
	.loc	1 326 6
	orr	w14, w17, #0xffffc000
.Ltmp3244:
	.loc	1 276 4
	orr	w13, w13, w0, lsl #12
.Ltmp3245:
	.loc	1 326 6
	csel	w14, w17, w14, eq
.Ltmp3246:
	.loc	1 277 4
	orr	w13, w13, w15, lsl #14
.Ltmp3247:
	.loc	1 329 10
	and	w13, w13, w14
.Ltmp3248:
.LBB24_14:
	.loc	1 1489 25
	strh	w13, [x21, x12]
.Ltmp3249:
.LBB24_15:
	.loc	1 1485 17
	add	x12, x12, #2
.Ltmp3250:
	.loc	1 1485 3 is_stmt 0
	cmp	x10, x12
	b.eq	.LBB24_10
.Ltmp3251:
.LBB24_16:
	.loc	1 1486 15 is_stmt 1
	ldr	x13, [x20], #8
.Ltmp3252:
	.loc	1 1487 15
	ldr	x15, [x19], #8
.Ltmp3253:
	.loc	1 1488 8
	cmp	x13, x15
	b.eq	.LBB24_15
.Ltmp3254:
	.loc	1 307 25
	eor	x14, x15, x13
.Ltmp3255:
	.loc	1 309 6
	cbnz	x14, .LBB24_13
.Ltmp3256:
	.loc	1 0 6 is_stmt 0
	mov	w13, wzr
.Ltmp3257:
	b	.LBB24_14
.Ltmp3258:
.LBB24_19:
	.loc	1 1493 1 is_stmt 1
	ldp	x20, x19, [sp, #96]
.Ltmp3259:
	ldp	x22, x21, [sp, #80]
.Ltmp3260:
	ldp	x24, x23, [sp, #64]
.Ltmp3261:
	ldp	x26, x25, [sp, #48]
.Ltmp3262:
	ldp	x28, x27, [sp, #32]
	ldp	x29, x30, [sp, #16]
	ldr	x30, [x18, #-8]!
	add	sp, sp, #112
	ret
.Ltmp3263:
.Lfunc_end24:
	.size	direct_mode_data_change_part, .Lfunc_end24-direct_mode_data_change_part
	.cfi_endproc

	.p2align	2
	.type	direct_mode_data_change2,@function
direct_mode_data_change2:
.Lfunc_begin25:
	.loc	1 1496 0
	.cfi_startproc
	str	x23, [sp, #-48]!
	stp	x22, x21, [sp, #16]
	stp	x20, x19, [sp, #32]
	.cfi_def_cfa_offset 48
	.cfi_offset w19, -8
	.cfi_offset w20, -16
	.cfi_offset w21, -24
	.cfi_offset w22, -32
	.cfi_offset w23, -48
.Ltmp3264:
	.loc	1 1497 29 prologue_end
	adrp	x8, global_ebc
	ldr	x8, [x8, :lo12:global_ebc]
.Ltmp3265:
	.loc	1 1508 18
	ldp	w8, w11, [x8, #124]
.Ltmp3266:
	.loc	1 1514 14
	cmp	w11, #0
.Ltmp3267:
	.loc	1 1507 27
	lsr	w13, w8, #3
.Ltmp3268:
	.loc	1 1514 14
	cinc	w9, w11, lt
.Ltmp3269:
	.loc	1 1512 19
	cmp	w11, #0
.Ltmp3270:
	.loc	1 1514 14
	asr	w9, w9, #1
.Ltmp3271:
